Archive member included to satisfy reference by file (symbol)

d:/rt-threadstudio/repo/extract/toolchain_support_packages/arm/gnu_tools_for_arm_embedded_processors/5.4.1/bin/../lib/gcc/arm-none-eabi/5.4.1/../../../../arm-none-eabi/lib/armv7-ar/thumb/softfp\libc.a(lib_a-atoi.o)
                              ./rt-thread/components/finsh/msh_file.o (atoi)
d:/rt-threadstudio/repo/extract/toolchain_support_packages/arm/gnu_tools_for_arm_embedded_processors/5.4.1/bin/../lib/gcc/arm-none-eabi/5.4.1/../../../../arm-none-eabi/lib/armv7-ar/thumb/softfp\libc.a(lib_a-exit.o)
                              d:/rt-threadstudio/repo/extract/toolchain_support_packages/arm/gnu_tools_for_arm_embedded_processors/5.4.1/bin/../lib/gcc/arm-none-eabi/5.4.1/../../../../arm-none-eabi/lib/armv7-ar/thumb/softfp/crt0.o (exit)
d:/rt-threadstudio/repo/extract/toolchain_support_packages/arm/gnu_tools_for_arm_embedded_processors/5.4.1/bin/../lib/gcc/arm-none-eabi/5.4.1/../../../../arm-none-eabi/lib/armv7-ar/thumb/softfp\libc.a(lib_a-fclose.o)
                              ./rt-thread/components/libc/compilers/gcc/newlib/stdio.o (fclose)
d:/rt-threadstudio/repo/extract/toolchain_support_packages/arm/gnu_tools_for_arm_embedded_processors/5.4.1/bin/../lib/gcc/arm-none-eabi/5.4.1/../../../../arm-none-eabi/lib/armv7-ar/thumb/softfp\libc.a(lib_a-fflush.o)
                              d:/rt-threadstudio/repo/extract/toolchain_support_packages/arm/gnu_tools_for_arm_embedded_processors/5.4.1/bin/../lib/gcc/arm-none-eabi/5.4.1/../../../../arm-none-eabi/lib/armv7-ar/thumb/softfp\libc.a(lib_a-fclose.o) (__sflush_r)
d:/rt-threadstudio/repo/extract/toolchain_support_packages/arm/gnu_tools_for_arm_embedded_processors/5.4.1/bin/../lib/gcc/arm-none-eabi/5.4.1/../../../../arm-none-eabi/lib/armv7-ar/thumb/softfp\libc.a(lib_a-fileno.o)
                              ./rt-thread/components/libc/compilers/gcc/newlib/stdio.o (fileno)
d:/rt-threadstudio/repo/extract/toolchain_support_packages/arm/gnu_tools_for_arm_embedded_processors/5.4.1/bin/../lib/gcc/arm-none-eabi/5.4.1/../../../../arm-none-eabi/lib/armv7-ar/thumb/softfp\libc.a(lib_a-findfp.o)
                              d:/rt-threadstudio/repo/extract/toolchain_support_packages/arm/gnu_tools_for_arm_embedded_processors/5.4.1/bin/../lib/gcc/arm-none-eabi/5.4.1/../../../../arm-none-eabi/lib/armv7-ar/thumb/softfp\libc.a(lib_a-fclose.o) (__sinit)
d:/rt-threadstudio/repo/extract/toolchain_support_packages/arm/gnu_tools_for_arm_embedded_processors/5.4.1/bin/../lib/gcc/arm-none-eabi/5.4.1/../../../../arm-none-eabi/lib/armv7-ar/thumb/softfp\libc.a(lib_a-fopen.o)
                              ./rt-thread/components/libc/compilers/gcc/newlib/stdio.o (fopen)
d:/rt-threadstudio/repo/extract/toolchain_support_packages/arm/gnu_tools_for_arm_embedded_processors/5.4.1/bin/../lib/gcc/arm-none-eabi/5.4.1/../../../../arm-none-eabi/lib/armv7-ar/thumb/softfp\libc.a(lib_a-fseek.o)
                              d:/rt-threadstudio/repo/extract/toolchain_support_packages/arm/gnu_tools_for_arm_embedded_processors/5.4.1/bin/../lib/gcc/arm-none-eabi/5.4.1/../../../../arm-none-eabi/lib/armv7-ar/thumb/softfp\libc.a(lib_a-fopen.o) (_fseek_r)
d:/rt-threadstudio/repo/extract/toolchain_support_packages/arm/gnu_tools_for_arm_embedded_processors/5.4.1/bin/../lib/gcc/arm-none-eabi/5.4.1/../../../../arm-none-eabi/lib/armv7-ar/thumb/softfp\libc.a(lib_a-fseeko.o)
                              d:/rt-threadstudio/repo/extract/toolchain_support_packages/arm/gnu_tools_for_arm_embedded_processors/5.4.1/bin/../lib/gcc/arm-none-eabi/5.4.1/../../../../arm-none-eabi/lib/armv7-ar/thumb/softfp\libc.a(lib_a-fseek.o) (_fseeko_r)
d:/rt-threadstudio/repo/extract/toolchain_support_packages/arm/gnu_tools_for_arm_embedded_processors/5.4.1/bin/../lib/gcc/arm-none-eabi/5.4.1/../../../../arm-none-eabi/lib/armv7-ar/thumb/softfp\libc.a(lib_a-fwalk.o)
                              d:/rt-threadstudio/repo/extract/toolchain_support_packages/arm/gnu_tools_for_arm_embedded_processors/5.4.1/bin/../lib/gcc/arm-none-eabi/5.4.1/../../../../arm-none-eabi/lib/armv7-ar/thumb/softfp\libc.a(lib_a-findfp.o) (_fwalk)
d:/rt-threadstudio/repo/extract/toolchain_support_packages/arm/gnu_tools_for_arm_embedded_processors/5.4.1/bin/../lib/gcc/arm-none-eabi/5.4.1/../../../../arm-none-eabi/lib/armv7-ar/thumb/softfp\libc.a(lib_a-getc.o)
                              ./rt-thread/components/drivers/serial/serial.o (getc)
d:/rt-threadstudio/repo/extract/toolchain_support_packages/arm/gnu_tools_for_arm_embedded_processors/5.4.1/bin/../lib/gcc/arm-none-eabi/5.4.1/../../../../arm-none-eabi/lib/armv7-ar/thumb/softfp\libc.a(lib_a-impure.o)
                              ./rt-thread/components/libc/compilers/gcc/newlib/stdio.o (_global_impure_ptr)
d:/rt-threadstudio/repo/extract/toolchain_support_packages/arm/gnu_tools_for_arm_embedded_processors/5.4.1/bin/../lib/gcc/arm-none-eabi/5.4.1/../../../../arm-none-eabi/lib/armv7-ar/thumb/softfp\libc.a(lib_a-makebuf.o)
                              d:/rt-threadstudio/repo/extract/toolchain_support_packages/arm/gnu_tools_for_arm_embedded_processors/5.4.1/bin/../lib/gcc/arm-none-eabi/5.4.1/../../../../arm-none-eabi/lib/armv7-ar/thumb/softfp\libc.a(lib_a-fseeko.o) (__smakebuf_r)
d:/rt-threadstudio/repo/extract/toolchain_support_packages/arm/gnu_tools_for_arm_embedded_processors/5.4.1/bin/../lib/gcc/arm-none-eabi/5.4.1/../../../../arm-none-eabi/lib/armv7-ar/thumb/softfp\libc.a(lib_a-memcmp.o)
                              ./rt-thread/components/finsh/shell.o (memcmp)
d:/rt-threadstudio/repo/extract/toolchain_support_packages/arm/gnu_tools_for_arm_embedded_processors/5.4.1/bin/../lib/gcc/arm-none-eabi/5.4.1/../../../../arm-none-eabi/lib/armv7-ar/thumb/softfp\libc.a(lib_a-memcpy.o)
                              ./rt-thread/components/finsh/msh.o (memcpy)
d:/rt-threadstudio/repo/extract/toolchain_support_packages/arm/gnu_tools_for_arm_embedded_processors/5.4.1/bin/../lib/gcc/arm-none-eabi/5.4.1/../../../../arm-none-eabi/lib/armv7-ar/thumb/softfp\libc.a(lib_a-memset.o)
                              d:/rt-threadstudio/repo/extract/toolchain_support_packages/arm/gnu_tools_for_arm_embedded_processors/5.4.1/bin/../lib/gcc/arm-none-eabi/5.4.1/../../../../arm-none-eabi/lib/armv7-ar/thumb/softfp/crt0.o (memset)
d:/rt-threadstudio/repo/extract/toolchain_support_packages/arm/gnu_tools_for_arm_embedded_processors/5.4.1/bin/../lib/gcc/arm-none-eabi/5.4.1/../../../../arm-none-eabi/lib/armv7-ar/thumb/softfp\libc.a(lib_a-putenv.o)
                              ./rt-thread/components/libc/compilers/gcc/newlib/libc.o (putenv)
d:/rt-threadstudio/repo/extract/toolchain_support_packages/arm/gnu_tools_for_arm_embedded_processors/5.4.1/bin/../lib/gcc/arm-none-eabi/5.4.1/../../../../arm-none-eabi/lib/armv7-ar/thumb/softfp\libc.a(lib_a-putenv_r.o)
                              d:/rt-threadstudio/repo/extract/toolchain_support_packages/arm/gnu_tools_for_arm_embedded_processors/5.4.1/bin/../lib/gcc/arm-none-eabi/5.4.1/../../../../arm-none-eabi/lib/armv7-ar/thumb/softfp\libc.a(lib_a-putenv.o) (_putenv_r)
d:/rt-threadstudio/repo/extract/toolchain_support_packages/arm/gnu_tools_for_arm_embedded_processors/5.4.1/bin/../lib/gcc/arm-none-eabi/5.4.1/../../../../arm-none-eabi/lib/armv7-ar/thumb/softfp\libc.a(lib_a-puts.o)
                              ./applications/main.o (puts)
d:/rt-threadstudio/repo/extract/toolchain_support_packages/arm/gnu_tools_for_arm_embedded_processors/5.4.1/bin/../lib/gcc/arm-none-eabi/5.4.1/../../../../arm-none-eabi/lib/armv7-ar/thumb/softfp\libc.a(lib_a-refill.o)
                              d:/rt-threadstudio/repo/extract/toolchain_support_packages/arm/gnu_tools_for_arm_embedded_processors/5.4.1/bin/../lib/gcc/arm-none-eabi/5.4.1/../../../../arm-none-eabi/lib/armv7-ar/thumb/softfp\libc.a(lib_a-fseeko.o) (__srefill_r)
d:/rt-threadstudio/repo/extract/toolchain_support_packages/arm/gnu_tools_for_arm_embedded_processors/5.4.1/bin/../lib/gcc/arm-none-eabi/5.4.1/../../../../arm-none-eabi/lib/armv7-ar/thumb/softfp\libc.a(lib_a-rget.o)
                              ./rt-thread/components/finsh/shell.o (__srget_r)
d:/rt-threadstudio/repo/extract/toolchain_support_packages/arm/gnu_tools_for_arm_embedded_processors/5.4.1/bin/../lib/gcc/arm-none-eabi/5.4.1/../../../../arm-none-eabi/lib/armv7-ar/thumb/softfp\libc.a(lib_a-setenv_r.o)
                              d:/rt-threadstudio/repo/extract/toolchain_support_packages/arm/gnu_tools_for_arm_embedded_processors/5.4.1/bin/../lib/gcc/arm-none-eabi/5.4.1/../../../../arm-none-eabi/lib/armv7-ar/thumb/softfp\libc.a(lib_a-putenv_r.o) (_setenv_r)
d:/rt-threadstudio/repo/extract/toolchain_support_packages/arm/gnu_tools_for_arm_embedded_processors/5.4.1/bin/../lib/gcc/arm-none-eabi/5.4.1/../../../../arm-none-eabi/lib/armv7-ar/thumb/softfp\libc.a(lib_a-setvbuf.o)
                              ./rt-thread/components/libc/compilers/gcc/newlib/stdio.o (setvbuf)
d:/rt-threadstudio/repo/extract/toolchain_support_packages/arm/gnu_tools_for_arm_embedded_processors/5.4.1/bin/../lib/gcc/arm-none-eabi/5.4.1/../../../../arm-none-eabi/lib/armv7-ar/thumb/softfp\libc.a(lib_a-snprintf.o)
                              ./rt-thread/components/libc/compilers/gcc/newlib/stdio.o (snprintf)
d:/rt-threadstudio/repo/extract/toolchain_support_packages/arm/gnu_tools_for_arm_embedded_processors/5.4.1/bin/../lib/gcc/arm-none-eabi/5.4.1/../../../../arm-none-eabi/lib/armv7-ar/thumb/softfp\libc.a(lib_a-stdio.o)
                              d:/rt-threadstudio/repo/extract/toolchain_support_packages/arm/gnu_tools_for_arm_embedded_processors/5.4.1/bin/../lib/gcc/arm-none-eabi/5.4.1/../../../../arm-none-eabi/lib/armv7-ar/thumb/softfp\libc.a(lib_a-findfp.o) (__sread)
d:/rt-threadstudio/repo/extract/toolchain_support_packages/arm/gnu_tools_for_arm_embedded_processors/5.4.1/bin/../lib/gcc/arm-none-eabi/5.4.1/../../../../arm-none-eabi/lib/armv7-ar/thumb/softfp\libc.a(lib_a-strchr.o)
                              d:/rt-threadstudio/repo/extract/toolchain_support_packages/arm/gnu_tools_for_arm_embedded_processors/5.4.1/bin/../lib/gcc/arm-none-eabi/5.4.1/../../../../arm-none-eabi/lib/armv7-ar/thumb/softfp\libc.a(lib_a-putenv_r.o) (strchr)
d:/rt-threadstudio/repo/extract/toolchain_support_packages/arm/gnu_tools_for_arm_embedded_processors/5.4.1/bin/../lib/gcc/arm-none-eabi/5.4.1/../../../../arm-none-eabi/lib/armv7-ar/thumb/softfp\libc.a(lib_a-strcmp.o)
                              ./rt-thread/components/finsh/msh_file.o (strcmp)
d:/rt-threadstudio/repo/extract/toolchain_support_packages/arm/gnu_tools_for_arm_embedded_processors/5.4.1/bin/../lib/gcc/arm-none-eabi/5.4.1/../../../../arm-none-eabi/lib/armv7-ar/thumb/softfp\libc.a(lib_a-strcpy.o)
                              ./rt-thread/components/finsh/msh.o (strcpy)
d:/rt-threadstudio/repo/extract/toolchain_support_packages/arm/gnu_tools_for_arm_embedded_processors/5.4.1/bin/../lib/gcc/arm-none-eabi/5.4.1/../../../../arm-none-eabi/lib/armv7-ar/thumb/softfp\libc.a(lib_a-strdup_r.o)
                              d:/rt-threadstudio/repo/extract/toolchain_support_packages/arm/gnu_tools_for_arm_embedded_processors/5.4.1/bin/../lib/gcc/arm-none-eabi/5.4.1/../../../../arm-none-eabi/lib/armv7-ar/thumb/softfp\libc.a(lib_a-putenv_r.o) (_strdup_r)
d:/rt-threadstudio/repo/extract/toolchain_support_packages/arm/gnu_tools_for_arm_embedded_processors/5.4.1/bin/../lib/gcc/arm-none-eabi/5.4.1/../../../../arm-none-eabi/lib/armv7-ar/thumb/softfp\libc.a(lib_a-strlen-stub.o)
                              ./rt-thread/components/finsh/msh.o (strlen)
d:/rt-threadstudio/repo/extract/toolchain_support_packages/arm/gnu_tools_for_arm_embedded_processors/5.4.1/bin/../lib/gcc/arm-none-eabi/5.4.1/../../../../arm-none-eabi/lib/armv7-ar/thumb/softfp\libc.a(lib_a-strncmp.o)
                              ./rt-thread/components/finsh/cmd.o (strncmp)
d:/rt-threadstudio/repo/extract/toolchain_support_packages/arm/gnu_tools_for_arm_embedded_processors/5.4.1/bin/../lib/gcc/arm-none-eabi/5.4.1/../../../../arm-none-eabi/lib/armv7-ar/thumb/softfp\libc.a(lib_a-strncpy.o)
                              ./rt-thread/components/finsh/shell.o (strncpy)
d:/rt-threadstudio/repo/extract/toolchain_support_packages/arm/gnu_tools_for_arm_embedded_processors/5.4.1/bin/../lib/gcc/arm-none-eabi/5.4.1/../../../../arm-none-eabi/lib/armv7-ar/thumb/softfp\libc.a(lib_a-strrchr.o)
                              ./rt-thread/components/dfs/src/dfs_file.o (strrchr)
d:/rt-threadstudio/repo/extract/toolchain_support_packages/arm/gnu_tools_for_arm_embedded_processors/5.4.1/bin/../lib/gcc/arm-none-eabi/5.4.1/../../../../arm-none-eabi/lib/armv7-ar/thumb/softfp\libc.a(lib_a-strstr.o)
                              ./rt-thread/components/finsh/msh_file.o (strstr)
d:/rt-threadstudio/repo/extract/toolchain_support_packages/arm/gnu_tools_for_arm_embedded_processors/5.4.1/bin/../lib/gcc/arm-none-eabi/5.4.1/../../../../arm-none-eabi/lib/armv7-ar/thumb/softfp\libc.a(lib_a-strtol.o)
                              d:/rt-threadstudio/repo/extract/toolchain_support_packages/arm/gnu_tools_for_arm_embedded_processors/5.4.1/bin/../lib/gcc/arm-none-eabi/5.4.1/../../../../arm-none-eabi/lib/armv7-ar/thumb/softfp\libc.a(lib_a-atoi.o) (_strtol_r)
d:/rt-threadstudio/repo/extract/toolchain_support_packages/arm/gnu_tools_for_arm_embedded_processors/5.4.1/bin/../lib/gcc/arm-none-eabi/5.4.1/../../../../arm-none-eabi/lib/armv7-ar/thumb/softfp\libc.a(lib_a-svfprintf.o)
                              d:/rt-threadstudio/repo/extract/toolchain_support_packages/arm/gnu_tools_for_arm_embedded_processors/5.4.1/bin/../lib/gcc/arm-none-eabi/5.4.1/../../../../arm-none-eabi/lib/armv7-ar/thumb/softfp\libc.a(lib_a-snprintf.o) (_svfprintf_r)
d:/rt-threadstudio/repo/extract/toolchain_support_packages/arm/gnu_tools_for_arm_embedded_processors/5.4.1/bin/../lib/gcc/arm-none-eabi/5.4.1/../../../../arm-none-eabi/lib/armv7-ar/thumb/softfp\libc.a(lib_a-__call_atexit.o)
                              d:/rt-threadstudio/repo/extract/toolchain_support_packages/arm/gnu_tools_for_arm_embedded_processors/5.4.1/bin/../lib/gcc/arm-none-eabi/5.4.1/../../../../arm-none-eabi/lib/armv7-ar/thumb/softfp\libc.a(lib_a-exit.o) (__call_exitprocs)
d:/rt-threadstudio/repo/extract/toolchain_support_packages/arm/gnu_tools_for_arm_embedded_processors/5.4.1/bin/../lib/gcc/arm-none-eabi/5.4.1/../../../../arm-none-eabi/lib/armv7-ar/thumb/softfp\libc.a(lib_a-atexit.o)
                              d:/rt-threadstudio/repo/extract/toolchain_support_packages/arm/gnu_tools_for_arm_embedded_processors/5.4.1/bin/../lib/gcc/arm-none-eabi/5.4.1/../../../../arm-none-eabi/lib/armv7-ar/thumb/softfp\libc.a(lib_a-__call_atexit.o) (atexit)
d:/rt-threadstudio/repo/extract/toolchain_support_packages/arm/gnu_tools_for_arm_embedded_processors/5.4.1/bin/../lib/gcc/arm-none-eabi/5.4.1/../../../../arm-none-eabi/lib/armv7-ar/thumb/softfp\libc.a(lib_a-dtoa.o)
                              d:/rt-threadstudio/repo/extract/toolchain_support_packages/arm/gnu_tools_for_arm_embedded_processors/5.4.1/bin/../lib/gcc/arm-none-eabi/5.4.1/../../../../arm-none-eabi/lib/armv7-ar/thumb/softfp\libc.a(lib_a-svfprintf.o) (_dtoa_r)
d:/rt-threadstudio/repo/extract/toolchain_support_packages/arm/gnu_tools_for_arm_embedded_processors/5.4.1/bin/../lib/gcc/arm-none-eabi/5.4.1/../../../../arm-none-eabi/lib/armv7-ar/thumb/softfp\libc.a(lib_a-environ.o)
                              d:/rt-threadstudio/repo/extract/toolchain_support_packages/arm/gnu_tools_for_arm_embedded_processors/5.4.1/bin/../lib/gcc/arm-none-eabi/5.4.1/../../../../arm-none-eabi/lib/armv7-ar/thumb/softfp\libc.a(lib_a-setenv_r.o) (environ)
d:/rt-threadstudio/repo/extract/toolchain_support_packages/arm/gnu_tools_for_arm_embedded_processors/5.4.1/bin/../lib/gcc/arm-none-eabi/5.4.1/../../../../arm-none-eabi/lib/armv7-ar/thumb/softfp\libc.a(lib_a-envlock.o)
                              d:/rt-threadstudio/repo/extract/toolchain_support_packages/arm/gnu_tools_for_arm_embedded_processors/5.4.1/bin/../lib/gcc/arm-none-eabi/5.4.1/../../../../arm-none-eabi/lib/armv7-ar/thumb/softfp\libc.a(lib_a-setenv_r.o) (__env_lock)
d:/rt-threadstudio/repo/extract/toolchain_support_packages/arm/gnu_tools_for_arm_embedded_processors/5.4.1/bin/../lib/gcc/arm-none-eabi/5.4.1/../../../../arm-none-eabi/lib/armv7-ar/thumb/softfp\libc.a(lib_a-fini.o)
                              d:/rt-threadstudio/repo/extract/toolchain_support_packages/arm/gnu_tools_for_arm_embedded_processors/5.4.1/bin/../lib/gcc/arm-none-eabi/5.4.1/../../../../arm-none-eabi/lib/armv7-ar/thumb/softfp\libc.a(lib_a-__call_atexit.o) (__libc_fini_array)
d:/rt-threadstudio/repo/extract/toolchain_support_packages/arm/gnu_tools_for_arm_embedded_processors/5.4.1/bin/../lib/gcc/arm-none-eabi/5.4.1/../../../../arm-none-eabi/lib/armv7-ar/thumb/softfp\libc.a(lib_a-flags.o)
                              d:/rt-threadstudio/repo/extract/toolchain_support_packages/arm/gnu_tools_for_arm_embedded_processors/5.4.1/bin/../lib/gcc/arm-none-eabi/5.4.1/../../../../arm-none-eabi/lib/armv7-ar/thumb/softfp\libc.a(lib_a-fopen.o) (__sflags)
d:/rt-threadstudio/repo/extract/toolchain_support_packages/arm/gnu_tools_for_arm_embedded_processors/5.4.1/bin/../lib/gcc/arm-none-eabi/5.4.1/../../../../arm-none-eabi/lib/armv7-ar/thumb/softfp\libc.a(lib_a-fvwrite.o)
                              d:/rt-threadstudio/repo/extract/toolchain_support_packages/arm/gnu_tools_for_arm_embedded_processors/5.4.1/bin/../lib/gcc/arm-none-eabi/5.4.1/../../../../arm-none-eabi/lib/armv7-ar/thumb/softfp\libc.a(lib_a-puts.o) (__sfvwrite_r)
d:/rt-threadstudio/repo/extract/toolchain_support_packages/arm/gnu_tools_for_arm_embedded_processors/5.4.1/bin/../lib/gcc/arm-none-eabi/5.4.1/../../../../arm-none-eabi/lib/armv7-ar/thumb/softfp\libc.a(lib_a-getenv_r.o)
                              d:/rt-threadstudio/repo/extract/toolchain_support_packages/arm/gnu_tools_for_arm_embedded_processors/5.4.1/bin/../lib/gcc/arm-none-eabi/5.4.1/../../../../arm-none-eabi/lib/armv7-ar/thumb/softfp\libc.a(lib_a-setenv_r.o) (_findenv_r)
d:/rt-threadstudio/repo/extract/toolchain_support_packages/arm/gnu_tools_for_arm_embedded_processors/5.4.1/bin/../lib/gcc/arm-none-eabi/5.4.1/../../../../arm-none-eabi/lib/armv7-ar/thumb/softfp\libc.a(lib_a-locale.o)
                              d:/rt-threadstudio/repo/extract/toolchain_support_packages/arm/gnu_tools_for_arm_embedded_processors/5.4.1/bin/../lib/gcc/arm-none-eabi/5.4.1/../../../../arm-none-eabi/lib/armv7-ar/thumb/softfp\libc.a(lib_a-strtol.o) (__locale_ctype_ptr_l)
d:/rt-threadstudio/repo/extract/toolchain_support_packages/arm/gnu_tools_for_arm_embedded_processors/5.4.1/bin/../lib/gcc/arm-none-eabi/5.4.1/../../../../arm-none-eabi/lib/armv7-ar/thumb/softfp\libc.a(lib_a-localeconv.o)
                              d:/rt-threadstudio/repo/extract/toolchain_support_packages/arm/gnu_tools_for_arm_embedded_processors/5.4.1/bin/../lib/gcc/arm-none-eabi/5.4.1/../../../../arm-none-eabi/lib/armv7-ar/thumb/softfp\libc.a(lib_a-svfprintf.o) (_localeconv_r)
d:/rt-threadstudio/repo/extract/toolchain_support_packages/arm/gnu_tools_for_arm_embedded_processors/5.4.1/bin/../lib/gcc/arm-none-eabi/5.4.1/../../../../arm-none-eabi/lib/armv7-ar/thumb/softfp\libc.a(lib_a-malloc.o)
                              d:/rt-threadstudio/repo/extract/toolchain_support_packages/arm/gnu_tools_for_arm_embedded_processors/5.4.1/bin/../lib/gcc/arm-none-eabi/5.4.1/../../../../arm-none-eabi/lib/armv7-ar/thumb/softfp\libc.a(lib_a-setvbuf.o) (malloc)
d:/rt-threadstudio/repo/extract/toolchain_support_packages/arm/gnu_tools_for_arm_embedded_processors/5.4.1/bin/../lib/gcc/arm-none-eabi/5.4.1/../../../../arm-none-eabi/lib/armv7-ar/thumb/softfp\libc.a(lib_a-mbtowc_r.o)
                              d:/rt-threadstudio/repo/extract/toolchain_support_packages/arm/gnu_tools_for_arm_embedded_processors/5.4.1/bin/../lib/gcc/arm-none-eabi/5.4.1/../../../../arm-none-eabi/lib/armv7-ar/thumb/softfp\libc.a(lib_a-locale.o) (__ascii_mbtowc)
d:/rt-threadstudio/repo/extract/toolchain_support_packages/arm/gnu_tools_for_arm_embedded_processors/5.4.1/bin/../lib/gcc/arm-none-eabi/5.4.1/../../../../arm-none-eabi/lib/armv7-ar/thumb/softfp\libc.a(lib_a-memchr-stub.o)
                              d:/rt-threadstudio/repo/extract/toolchain_support_packages/arm/gnu_tools_for_arm_embedded_processors/5.4.1/bin/../lib/gcc/arm-none-eabi/5.4.1/../../../../arm-none-eabi/lib/armv7-ar/thumb/softfp\libc.a(lib_a-strstr.o) (memchr)
d:/rt-threadstudio/repo/extract/toolchain_support_packages/arm/gnu_tools_for_arm_embedded_processors/5.4.1/bin/../lib/gcc/arm-none-eabi/5.4.1/../../../../arm-none-eabi/lib/armv7-ar/thumb/softfp\libc.a(lib_a-memmove.o)
                              d:/rt-threadstudio/repo/extract/toolchain_support_packages/arm/gnu_tools_for_arm_embedded_processors/5.4.1/bin/../lib/gcc/arm-none-eabi/5.4.1/../../../../arm-none-eabi/lib/armv7-ar/thumb/softfp\libc.a(lib_a-fvwrite.o) (memmove)
d:/rt-threadstudio/repo/extract/toolchain_support_packages/arm/gnu_tools_for_arm_embedded_processors/5.4.1/bin/../lib/gcc/arm-none-eabi/5.4.1/../../../../arm-none-eabi/lib/armv7-ar/thumb/softfp\libc.a(lib_a-mprec.o)
                              d:/rt-threadstudio/repo/extract/toolchain_support_packages/arm/gnu_tools_for_arm_embedded_processors/5.4.1/bin/../lib/gcc/arm-none-eabi/5.4.1/../../../../arm-none-eabi/lib/armv7-ar/thumb/softfp\libc.a(lib_a-dtoa.o) (_Balloc)
d:/rt-threadstudio/repo/extract/toolchain_support_packages/arm/gnu_tools_for_arm_embedded_processors/5.4.1/bin/../lib/gcc/arm-none-eabi/5.4.1/../../../../arm-none-eabi/lib/armv7-ar/thumb/softfp\libc.a(lib_a-svfiprintf.o)
                              d:/rt-threadstudio/repo/extract/toolchain_support_packages/arm/gnu_tools_for_arm_embedded_processors/5.4.1/bin/../lib/gcc/arm-none-eabi/5.4.1/../../../../arm-none-eabi/lib/armv7-ar/thumb/softfp\libc.a(lib_a-svfprintf.o) (__ssprint_r)
d:/rt-threadstudio/repo/extract/toolchain_support_packages/arm/gnu_tools_for_arm_embedded_processors/5.4.1/bin/../lib/gcc/arm-none-eabi/5.4.1/../../../../arm-none-eabi/lib/armv7-ar/thumb/softfp\libc.a(lib_a-wctomb_r.o)
                              d:/rt-threadstudio/repo/extract/toolchain_support_packages/arm/gnu_tools_for_arm_embedded_processors/5.4.1/bin/../lib/gcc/arm-none-eabi/5.4.1/../../../../arm-none-eabi/lib/armv7-ar/thumb/softfp\libc.a(lib_a-locale.o) (__ascii_wctomb)
d:/rt-threadstudio/repo/extract/toolchain_support_packages/arm/gnu_tools_for_arm_embedded_processors/5.4.1/bin/../lib/gcc/arm-none-eabi/5.4.1/../../../../arm-none-eabi/lib/armv7-ar/thumb/softfp\libc.a(lib_a-wsetup.o)
                              d:/rt-threadstudio/repo/extract/toolchain_support_packages/arm/gnu_tools_for_arm_embedded_processors/5.4.1/bin/../lib/gcc/arm-none-eabi/5.4.1/../../../../arm-none-eabi/lib/armv7-ar/thumb/softfp\libc.a(lib_a-fvwrite.o) (__swsetup_r)
d:/rt-threadstudio/repo/extract/toolchain_support_packages/arm/gnu_tools_for_arm_embedded_processors/5.4.1/bin/../lib/gcc/arm-none-eabi/5.4.1/../../../../arm-none-eabi/lib/armv7-ar/thumb/softfp\libc.a(lib_a-__atexit.o)
                              d:/rt-threadstudio/repo/extract/toolchain_support_packages/arm/gnu_tools_for_arm_embedded_processors/5.4.1/bin/../lib/gcc/arm-none-eabi/5.4.1/../../../../arm-none-eabi/lib/armv7-ar/thumb/softfp\libc.a(lib_a-atexit.o) (__register_exitproc)
d:/rt-threadstudio/repo/extract/toolchain_support_packages/arm/gnu_tools_for_arm_embedded_processors/5.4.1/bin/../lib/gcc/arm-none-eabi/5.4.1/../../../../arm-none-eabi/lib/armv7-ar/thumb/softfp\libc.a(lib_a-ctype_.o)
                              d:/rt-threadstudio/repo/extract/toolchain_support_packages/arm/gnu_tools_for_arm_embedded_processors/5.4.1/bin/../lib/gcc/arm-none-eabi/5.4.1/../../../../arm-none-eabi/lib/armv7-ar/thumb/softfp\libc.a(lib_a-locale.o) (_ctype_)
d:/rt-threadstudio/repo/extract/toolchain_support_packages/arm/gnu_tools_for_arm_embedded_processors/5.4.1/bin/../lib/gcc/arm-none-eabi/5.4.1/armv7-ar/thumb/softfp\libgcc.a(_udivsi3.o)
                              ./rt-thread/src/ipc.o (__aeabi_uidiv)
d:/rt-threadstudio/repo/extract/toolchain_support_packages/arm/gnu_tools_for_arm_embedded_processors/5.4.1/bin/../lib/gcc/arm-none-eabi/5.4.1/armv7-ar/thumb/softfp\libgcc.a(_divsi3.o)
                              d:/rt-threadstudio/repo/extract/toolchain_support_packages/arm/gnu_tools_for_arm_embedded_processors/5.4.1/bin/../lib/gcc/arm-none-eabi/5.4.1/../../../../arm-none-eabi/lib/armv7-ar/thumb/softfp\libc.a(lib_a-fvwrite.o) (__aeabi_idiv)
d:/rt-threadstudio/repo/extract/toolchain_support_packages/arm/gnu_tools_for_arm_embedded_processors/5.4.1/bin/../lib/gcc/arm-none-eabi/5.4.1/armv7-ar/thumb/softfp\libgcc.a(_dvmd_tls.o)
                              d:/rt-threadstudio/repo/extract/toolchain_support_packages/arm/gnu_tools_for_arm_embedded_processors/5.4.1/bin/../lib/gcc/arm-none-eabi/5.4.1/armv7-ar/thumb/softfp\libgcc.a(_udivsi3.o) (__aeabi_idiv0)
d:/rt-threadstudio/repo/extract/toolchain_support_packages/arm/gnu_tools_for_arm_embedded_processors/5.4.1/bin/../lib/gcc/arm-none-eabi/5.4.1/armv7-ar/thumb/softfp\libgcc.a(_aeabi_uldivmod.o)
                              d:/rt-threadstudio/repo/extract/toolchain_support_packages/arm/gnu_tools_for_arm_embedded_processors/5.4.1/bin/../lib/gcc/arm-none-eabi/5.4.1/../../../../arm-none-eabi/lib/armv7-ar/thumb/softfp\libc.a(lib_a-svfprintf.o) (__aeabi_uldivmod)
d:/rt-threadstudio/repo/extract/toolchain_support_packages/arm/gnu_tools_for_arm_embedded_processors/5.4.1/bin/../lib/gcc/arm-none-eabi/5.4.1/armv7-ar/thumb/softfp\libgcc.a(_udivmoddi4.o)
                              d:/rt-threadstudio/repo/extract/toolchain_support_packages/arm/gnu_tools_for_arm_embedded_processors/5.4.1/bin/../lib/gcc/arm-none-eabi/5.4.1/armv7-ar/thumb/softfp\libgcc.a(_aeabi_uldivmod.o) (__udivmoddi4)

Allocating common symbols
Common symbol       size              file

rt_interrupt_to_thread
                    0x4               ./rt-thread/libcpu/arm/am335x/interrupt.o
rt_interrupt_from_thread
                    0x4               ./rt-thread/libcpu/arm/am335x/interrupt.o
shell               0x4               ./rt-thread/components/finsh/shell.o
rt_thread_switch_interrupt_flag
                    0x4               ./rt-thread/libcpu/arm/am335x/interrupt.o
rt_thread_priority_table
                    0x100             ./rt-thread/src/scheduler.o
rt_object_put_hook  0x4               ./rt-thread/src/object.o
rt_current_priority
                    0x1               ./rt-thread/src/scheduler.o
filesystem_table    0x20              ./rt-thread/components/dfs/src/dfs.o
rt_assert_hook      0x4               ./rt-thread/src/kservice.o
rt_object_take_hook
                    0x4               ./rt-thread/src/object.o
rt_thread_ready_priority_group
                    0x4               ./rt-thread/src/scheduler.o
filesystem_operation_table
                    0x8               ./rt-thread/components/dfs/src/dfs.o
rt_object_trytake_hook
                    0x4               ./rt-thread/src/object.o
irq_desc            0x300             ./rt-thread/libcpu/arm/am335x/interrupt.o

Discarded input sections

 .text          0x00000000        0x0 d:/rt-threadstudio/repo/extract/toolchain_support_packages/arm/gnu_tools_for_arm_embedded_processors/5.4.1/bin/../lib/gcc/arm-none-eabi/5.4.1/armv7-ar/thumb/softfp/crti.o
 .data          0x00000000        0x0 d:/rt-threadstudio/repo/extract/toolchain_support_packages/arm/gnu_tools_for_arm_embedded_processors/5.4.1/bin/../lib/gcc/arm-none-eabi/5.4.1/armv7-ar/thumb/softfp/crti.o
 .bss           0x00000000        0x0 d:/rt-threadstudio/repo/extract/toolchain_support_packages/arm/gnu_tools_for_arm_embedded_processors/5.4.1/bin/../lib/gcc/arm-none-eabi/5.4.1/armv7-ar/thumb/softfp/crti.o
 .text          0x00000000       0x6c d:/rt-threadstudio/repo/extract/toolchain_support_packages/arm/gnu_tools_for_arm_embedded_processors/5.4.1/bin/../lib/gcc/arm-none-eabi/5.4.1/armv7-ar/thumb/softfp/crtbegin.o
 .data          0x00000000        0x4 d:/rt-threadstudio/repo/extract/toolchain_support_packages/arm/gnu_tools_for_arm_embedded_processors/5.4.1/bin/../lib/gcc/arm-none-eabi/5.4.1/armv7-ar/thumb/softfp/crtbegin.o
 .bss           0x00000000       0x1c d:/rt-threadstudio/repo/extract/toolchain_support_packages/arm/gnu_tools_for_arm_embedded_processors/5.4.1/bin/../lib/gcc/arm-none-eabi/5.4.1/armv7-ar/thumb/softfp/crtbegin.o
 .init_array    0x00000000        0x4 d:/rt-threadstudio/repo/extract/toolchain_support_packages/arm/gnu_tools_for_arm_embedded_processors/5.4.1/bin/../lib/gcc/arm-none-eabi/5.4.1/armv7-ar/thumb/softfp/crtbegin.o
 .fini_array    0x00000000        0x4 d:/rt-threadstudio/repo/extract/toolchain_support_packages/arm/gnu_tools_for_arm_embedded_processors/5.4.1/bin/../lib/gcc/arm-none-eabi/5.4.1/armv7-ar/thumb/softfp/crtbegin.o
 .eh_frame      0x00000000        0x0 d:/rt-threadstudio/repo/extract/toolchain_support_packages/arm/gnu_tools_for_arm_embedded_processors/5.4.1/bin/../lib/gcc/arm-none-eabi/5.4.1/armv7-ar/thumb/softfp/crtbegin.o
 .jcr           0x00000000        0x0 d:/rt-threadstudio/repo/extract/toolchain_support_packages/arm/gnu_tools_for_arm_embedded_processors/5.4.1/bin/../lib/gcc/arm-none-eabi/5.4.1/armv7-ar/thumb/softfp/crtbegin.o
 .ARM.attributes
                0x00000000       0x2b d:/rt-threadstudio/repo/extract/toolchain_support_packages/arm/gnu_tools_for_arm_embedded_processors/5.4.1/bin/../lib/gcc/arm-none-eabi/5.4.1/armv7-ar/thumb/softfp/crtbegin.o
 .text          0x00000000       0x74 d:/rt-threadstudio/repo/extract/toolchain_support_packages/arm/gnu_tools_for_arm_embedded_processors/5.4.1/bin/../lib/gcc/arm-none-eabi/5.4.1/../../../../arm-none-eabi/lib/armv7-ar/thumb/softfp/crt0.o
 .data          0x00000000        0x0 d:/rt-threadstudio/repo/extract/toolchain_support_packages/arm/gnu_tools_for_arm_embedded_processors/5.4.1/bin/../lib/gcc/arm-none-eabi/5.4.1/../../../../arm-none-eabi/lib/armv7-ar/thumb/softfp/crt0.o
 .bss           0x00000000        0x0 d:/rt-threadstudio/repo/extract/toolchain_support_packages/arm/gnu_tools_for_arm_embedded_processors/5.4.1/bin/../lib/gcc/arm-none-eabi/5.4.1/../../../../arm-none-eabi/lib/armv7-ar/thumb/softfp/crt0.o
 .ARM.extab     0x00000000        0x0 d:/rt-threadstudio/repo/extract/toolchain_support_packages/arm/gnu_tools_for_arm_embedded_processors/5.4.1/bin/../lib/gcc/arm-none-eabi/5.4.1/../../../../arm-none-eabi/lib/armv7-ar/thumb/softfp/crt0.o
 .ARM.exidx     0x00000000        0x8 d:/rt-threadstudio/repo/extract/toolchain_support_packages/arm/gnu_tools_for_arm_embedded_processors/5.4.1/bin/../lib/gcc/arm-none-eabi/5.4.1/../../../../arm-none-eabi/lib/armv7-ar/thumb/softfp/crt0.o
 .ARM.attributes
                0x00000000       0x19 d:/rt-threadstudio/repo/extract/toolchain_support_packages/arm/gnu_tools_for_arm_embedded_processors/5.4.1/bin/../lib/gcc/arm-none-eabi/5.4.1/../../../../arm-none-eabi/lib/armv7-ar/thumb/softfp/crt0.o
 .data          0x00000000        0x0 ./rt-thread/src/clock.o
 .data          0x00000000        0x0 ./rt-thread/src/components.o
 .bss           0x00000000        0x0 ./rt-thread/src/components.o
 .data          0x00000000        0x0 ./rt-thread/src/device.o
 .bss           0x00000000        0x0 ./rt-thread/src/device.o
 .data          0x00000000        0x0 ./rt-thread/src/ipc.o
 .bss           0x00000000        0x0 ./rt-thread/src/ipc.o
 .data          0x00000000        0x0 ./rt-thread/src/irq.o
 .data          0x00000000        0x0 ./rt-thread/src/kservice.o
 .data          0x00000000        0x0 ./rt-thread/src/mem.o
 .text          0x00000000      0xb00 ./rt-thread/src/mempool.o
 .data          0x00000000        0x0 ./rt-thread/src/mempool.o
 .bss           0x00000000        0x8 ./rt-thread/src/mempool.o
 .rodata        0x00000000      0x198 ./rt-thread/src/mempool.o
 .debug_info    0x00000000      0x8da ./rt-thread/src/mempool.o
 .debug_abbrev  0x00000000      0x1f0 ./rt-thread/src/mempool.o
 .debug_loc     0x00000000      0x2a4 ./rt-thread/src/mempool.o
 .debug_aranges
                0x00000000       0x20 ./rt-thread/src/mempool.o
 .debug_line    0x00000000      0x25d ./rt-thread/src/mempool.o
 .debug_str     0x00000000      0x616 ./rt-thread/src/mempool.o
 .comment       0x00000000       0x6f ./rt-thread/src/mempool.o
 .debug_frame   0x00000000      0x188 ./rt-thread/src/mempool.o
 .ARM.attributes
                0x00000000       0x2d ./rt-thread/src/mempool.o
 .data          0x00000000        0x0 ./rt-thread/src/scheduler.o
 .data          0x00000000        0x0 ./rt-thread/src/thread.o
 .data          0x00000000        0x0 ./rt-thread/src/timer.o
 .text          0x00000000       0xd8 ./rt-thread/libcpu/arm/common/backtrace.o
 .data          0x00000000        0x0 ./rt-thread/libcpu/arm/common/backtrace.o
 .bss           0x00000000        0x0 ./rt-thread/libcpu/arm/common/backtrace.o
 .rodata        0x00000000       0x19 ./rt-thread/libcpu/arm/common/backtrace.o
 .debug_info    0x00000000       0xe8 ./rt-thread/libcpu/arm/common/backtrace.o
 .debug_abbrev  0x00000000       0x96 ./rt-thread/libcpu/arm/common/backtrace.o
 .debug_loc     0x00000000       0x38 ./rt-thread/libcpu/arm/common/backtrace.o
 .debug_aranges
                0x00000000       0x20 ./rt-thread/libcpu/arm/common/backtrace.o
 .debug_line    0x00000000       0xd8 ./rt-thread/libcpu/arm/common/backtrace.o
 .debug_str     0x00000000      0x1f4 ./rt-thread/libcpu/arm/common/backtrace.o
 .comment       0x00000000       0x6f ./rt-thread/libcpu/arm/common/backtrace.o
 .debug_frame   0x00000000       0x30 ./rt-thread/libcpu/arm/common/backtrace.o
 .ARM.attributes
                0x00000000       0x2d ./rt-thread/libcpu/arm/common/backtrace.o
 .text          0x00000000        0xc ./rt-thread/libcpu/arm/common/div0.o
 .data          0x00000000        0x0 ./rt-thread/libcpu/arm/common/div0.o
 .bss           0x00000000        0x0 ./rt-thread/libcpu/arm/common/div0.o
 .debug_info    0x00000000       0x3c ./rt-thread/libcpu/arm/common/div0.o
 .debug_abbrev  0x00000000       0x2c ./rt-thread/libcpu/arm/common/div0.o
 .debug_loc     0x00000000       0x2c ./rt-thread/libcpu/arm/common/div0.o
 .debug_aranges
                0x00000000       0x20 ./rt-thread/libcpu/arm/common/div0.o
 .debug_line    0x00000000       0x5a ./rt-thread/libcpu/arm/common/div0.o
 .debug_str     0x00000000      0x130 ./rt-thread/libcpu/arm/common/div0.o
 .comment       0x00000000       0x6f ./rt-thread/libcpu/arm/common/div0.o
 .debug_frame   0x00000000       0x28 ./rt-thread/libcpu/arm/common/div0.o
 .ARM.attributes
                0x00000000       0x2d ./rt-thread/libcpu/arm/common/div0.o
 .text          0x00000000       0xf8 ./rt-thread/libcpu/arm/common/showmem.o
 .data          0x00000000        0x0 ./rt-thread/libcpu/arm/common/showmem.o
 .bss           0x00000000        0x0 ./rt-thread/libcpu/arm/common/showmem.o
 .rodata        0x00000000       0x36 ./rt-thread/libcpu/arm/common/showmem.o
 .debug_info    0x00000000       0xfe ./rt-thread/libcpu/arm/common/showmem.o
 .debug_abbrev  0x00000000       0x95 ./rt-thread/libcpu/arm/common/showmem.o
 .debug_loc     0x00000000       0x38 ./rt-thread/libcpu/arm/common/showmem.o
 .debug_aranges
                0x00000000       0x20 ./rt-thread/libcpu/arm/common/showmem.o
 .debug_line    0x00000000       0xe1 ./rt-thread/libcpu/arm/common/showmem.o
 .debug_str     0x00000000      0x1f3 ./rt-thread/libcpu/arm/common/showmem.o
 .comment       0x00000000       0x6f ./rt-thread/libcpu/arm/common/showmem.o
 .debug_frame   0x00000000       0x30 ./rt-thread/libcpu/arm/common/showmem.o
 .ARM.attributes
                0x00000000       0x2d ./rt-thread/libcpu/arm/common/showmem.o
 .data          0x00000000        0x0 ./rt-thread/libcpu/arm/am335x/context_gcc.o
 .bss           0x00000000        0x0 ./rt-thread/libcpu/arm/am335x/context_gcc.o
 .data          0x00000000        0x0 ./rt-thread/libcpu/arm/am335x/cpu.o
 .bss           0x00000000        0x0 ./rt-thread/libcpu/arm/am335x/cpu.o
 .data          0x00000000        0x0 ./rt-thread/libcpu/arm/am335x/interrupt.o
 .bss           0x00000000        0x0 ./rt-thread/libcpu/arm/am335x/interrupt.o
 .data          0x00000000        0x0 ./rt-thread/libcpu/arm/am335x/stack.o
 .bss           0x00000000        0x0 ./rt-thread/libcpu/arm/am335x/stack.o
 .data          0x00000000        0x0 ./rt-thread/libcpu/arm/am335x/start_gcc.o
 .bss           0x00000000        0x0 ./rt-thread/libcpu/arm/am335x/start_gcc.o
 .data          0x00000000        0x0 ./rt-thread/libcpu/arm/am335x/trap.o
 .bss           0x00000000        0x0 ./rt-thread/libcpu/arm/am335x/trap.o
 .text          0x00000000        0x0 ./rt-thread/libcpu/arm/am335x/vector_gcc.o
 .data          0x00000000        0x0 ./rt-thread/libcpu/arm/am335x/vector_gcc.o
 .bss           0x00000000        0x0 ./rt-thread/libcpu/arm/am335x/vector_gcc.o
 .data          0x00000000        0x0 ./rt-thread/components/libc/compilers/gcc/newlib/libc.o
 .bss           0x00000000        0x0 ./rt-thread/components/libc/compilers/gcc/newlib/libc.o
 .data          0x00000000        0x0 ./rt-thread/components/libc/compilers/gcc/newlib/stdio.o
 .data          0x00000000        0x0 ./rt-thread/components/libc/compilers/gcc/newlib/syscalls.o
 .bss           0x00000000        0x0 ./rt-thread/components/libc/compilers/gcc/newlib/syscalls.o
 .text          0x00000000       0xd0 ./rt-thread/components/libc/compilers/common/delay.o
 .data          0x00000000        0x0 ./rt-thread/components/libc/compilers/common/delay.o
 .bss           0x00000000        0x0 ./rt-thread/components/libc/compilers/common/delay.o
 .debug_info    0x00000000      0x143 ./rt-thread/components/libc/compilers/common/delay.o
 .debug_abbrev  0x00000000       0x6b ./rt-thread/components/libc/compilers/common/delay.o
 .debug_loc     0x00000000      0x118 ./rt-thread/components/libc/compilers/common/delay.o
 .debug_aranges
                0x00000000       0x20 ./rt-thread/components/libc/compilers/common/delay.o
 .debug_line    0x00000000       0x73 ./rt-thread/components/libc/compilers/common/delay.o
 .debug_str     0x00000000      0x208 ./rt-thread/components/libc/compilers/common/delay.o
 .comment       0x00000000       0x6f ./rt-thread/components/libc/compilers/common/delay.o
 .debug_frame   0x00000000       0xb0 ./rt-thread/components/libc/compilers/common/delay.o
 .ARM.attributes
                0x00000000       0x2d ./rt-thread/components/libc/compilers/common/delay.o
 .data          0x00000000        0x0 ./rt-thread/components/libc/compilers/common/stdlib.o
 .bss           0x00000000        0x0 ./rt-thread/components/libc/compilers/common/stdlib.o
 .text          0x00000000     0x12bc ./rt-thread/components/libc/compilers/common/time.o
 .data          0x00000000        0x1 ./rt-thread/components/libc/compilers/common/time.o
 .bss           0x00000000       0x62 ./rt-thread/components/libc/compilers/common/time.o
 .rodata        0x00000000      0x174 ./rt-thread/components/libc/compilers/common/time.o
 .debug_info    0x00000000      0x908 ./rt-thread/components/libc/compilers/common/time.o
 .debug_abbrev  0x00000000      0x1eb ./rt-thread/components/libc/compilers/common/time.o
 .debug_loc     0x00000000      0x5d4 ./rt-thread/components/libc/compilers/common/time.o
 .debug_aranges
                0x00000000       0x20 ./rt-thread/components/libc/compilers/common/time.o
 .debug_ranges  0x00000000       0x18 ./rt-thread/components/libc/compilers/common/time.o
 .debug_line    0x00000000      0x478 ./rt-thread/components/libc/compilers/common/time.o
 .debug_str     0x00000000      0x457 ./rt-thread/components/libc/compilers/common/time.o
 .comment       0x00000000       0x6f ./rt-thread/components/libc/compilers/common/time.o
 .debug_frame   0x00000000      0x368 ./rt-thread/components/libc/compilers/common/time.o
 .ARM.attributes
                0x00000000       0x2d ./rt-thread/components/libc/compilers/common/time.o
 .text          0x00000000      0x22c ./rt-thread/components/libc/compilers/common/unistd.o
 .data          0x00000000        0x0 ./rt-thread/components/libc/compilers/common/unistd.o
 .bss           0x00000000        0x0 ./rt-thread/components/libc/compilers/common/unistd.o
 .rodata        0x00000000        0x9 ./rt-thread/components/libc/compilers/common/unistd.o
 .debug_info    0x00000000      0x247 ./rt-thread/components/libc/compilers/common/unistd.o
 .debug_abbrev  0x00000000       0xca ./rt-thread/components/libc/compilers/common/unistd.o
 .debug_loc     0x00000000      0x2bc ./rt-thread/components/libc/compilers/common/unistd.o
 .debug_aranges
                0x00000000       0x20 ./rt-thread/components/libc/compilers/common/unistd.o
 .debug_line    0x00000000      0x141 ./rt-thread/components/libc/compilers/common/unistd.o
 .debug_str     0x00000000      0x277 ./rt-thread/components/libc/compilers/common/unistd.o
 .comment       0x00000000       0x6f ./rt-thread/components/libc/compilers/common/unistd.o
 .debug_frame   0x00000000      0x16c ./rt-thread/components/libc/compilers/common/unistd.o
 .ARM.attributes
                0x00000000       0x2d ./rt-thread/components/libc/compilers/common/unistd.o
 .data          0x00000000        0x0 ./rt-thread/components/finsh/cmd.o
 .bss           0x00000000        0x0 ./rt-thread/components/finsh/cmd.o
 .data          0x00000000        0x0 ./rt-thread/components/finsh/msh.o
 .bss           0x00000000        0x0 ./rt-thread/components/finsh/msh.o
 .data          0x00000000        0x0 ./rt-thread/components/finsh/msh_file.o
 .bss           0x00000000        0x0 ./rt-thread/components/finsh/msh_file.o
 .data          0x00000000        0x0 ./rt-thread/components/finsh/shell.o
 .data          0x00000000        0x0 ./rt-thread/components/drivers/src/completion.o
 .bss           0x00000000        0x0 ./rt-thread/components/drivers/src/completion.o
 .data          0x00000000        0x0 ./rt-thread/components/drivers/src/dataqueue.o
 .bss           0x00000000        0x0 ./rt-thread/components/drivers/src/dataqueue.o
 .text          0x00000000     0x10f0 ./rt-thread/components/drivers/src/pipe.o
 .data          0x00000000        0x0 ./rt-thread/components/drivers/src/pipe.o
 .bss           0x00000000        0x4 ./rt-thread/components/drivers/src/pipe.o
 .rodata        0x00000000       0x77 ./rt-thread/components/drivers/src/pipe.o
 .debug_info    0x00000000     0x1610 ./rt-thread/components/drivers/src/pipe.o
 .debug_abbrev  0x00000000      0x2a6 ./rt-thread/components/drivers/src/pipe.o
 .debug_loc     0x00000000      0x408 ./rt-thread/components/drivers/src/pipe.o
 .debug_aranges
                0x00000000       0x20 ./rt-thread/components/drivers/src/pipe.o
 .debug_ranges  0x00000000       0x30 ./rt-thread/components/drivers/src/pipe.o
 .debug_line    0x00000000      0x655 ./rt-thread/components/drivers/src/pipe.o
 .debug_str     0x00000000      0xb5a ./rt-thread/components/drivers/src/pipe.o
 .comment       0x00000000       0x6f ./rt-thread/components/drivers/src/pipe.o
 .debug_frame   0x00000000      0x25c ./rt-thread/components/drivers/src/pipe.o
 .ARM.attributes
                0x00000000       0x2d ./rt-thread/components/drivers/src/pipe.o
 .text          0x00000000     0x10a4 ./rt-thread/components/drivers/src/ringblk_buf.o
 .data          0x00000000        0x0 ./rt-thread/components/drivers/src/ringblk_buf.o
 .bss           0x00000000        0x0 ./rt-thread/components/drivers/src/ringblk_buf.o
 .rodata        0x00000000      0x1b0 ./rt-thread/components/drivers/src/ringblk_buf.o
 .debug_info    0x00000000      0xa6c ./rt-thread/components/drivers/src/ringblk_buf.o
 .debug_abbrev  0x00000000      0x22a ./rt-thread/components/drivers/src/ringblk_buf.o
 .debug_loc     0x00000000      0x5a0 ./rt-thread/components/drivers/src/ringblk_buf.o
 .debug_aranges
                0x00000000       0x20 ./rt-thread/components/drivers/src/ringblk_buf.o
 .debug_line    0x00000000      0x3bf ./rt-thread/components/drivers/src/ringblk_buf.o
 .debug_str     0x00000000      0x52d ./rt-thread/components/drivers/src/ringblk_buf.o
 .comment       0x00000000       0x6f ./rt-thread/components/drivers/src/ringblk_buf.o
 .debug_frame   0x00000000      0x314 ./rt-thread/components/drivers/src/ringblk_buf.o
 .ARM.attributes
                0x00000000       0x2d ./rt-thread/components/drivers/src/ringblk_buf.o
 .text          0x00000000     0x110c ./rt-thread/components/drivers/src/ringbuffer.o
 .data          0x00000000        0x0 ./rt-thread/components/drivers/src/ringbuffer.o
 .bss           0x00000000        0x0 ./rt-thread/components/drivers/src/ringbuffer.o
 .rodata        0x00000000      0x112 ./rt-thread/components/drivers/src/ringbuffer.o
 .debug_info    0x00000000      0x63d ./rt-thread/components/drivers/src/ringbuffer.o
 .debug_abbrev  0x00000000      0x1b8 ./rt-thread/components/drivers/src/ringbuffer.o
 .debug_loc     0x00000000      0x2e4 ./rt-thread/components/drivers/src/ringbuffer.o
 .debug_aranges
                0x00000000       0x20 ./rt-thread/components/drivers/src/ringbuffer.o
 .debug_line    0x00000000      0x27e ./rt-thread/components/drivers/src/ringbuffer.o
 .debug_str     0x00000000      0x3ff ./rt-thread/components/drivers/src/ringbuffer.o
 .comment       0x00000000       0x6f ./rt-thread/components/drivers/src/ringbuffer.o
 .debug_frame   0x00000000      0x1c0 ./rt-thread/components/drivers/src/ringbuffer.o
 .ARM.attributes
                0x00000000       0x2d ./rt-thread/components/drivers/src/ringbuffer.o
 .data          0x00000000        0x0 ./rt-thread/components/drivers/src/waitqueue.o
 .bss           0x00000000        0x0 ./rt-thread/components/drivers/src/waitqueue.o
 .data          0x00000000        0x0 ./rt-thread/components/drivers/src/workqueue.o
 .data          0x00000000        0x0 ./rt-thread/components/drivers/serial/serial.o
 .text          0x00000000      0x6a8 ./rt-thread/components/drivers/misc/pin.o
 .data          0x00000000        0x0 ./rt-thread/components/drivers/misc/pin.o
 .bss           0x00000000       0x54 ./rt-thread/components/drivers/misc/pin.o
 .rodata        0x00000000       0xcf ./rt-thread/components/drivers/misc/pin.o
 .debug_info    0x00000000      0xa74 ./rt-thread/components/drivers/misc/pin.o
 .debug_abbrev  0x00000000      0x194 ./rt-thread/components/drivers/misc/pin.o
 .debug_loc     0x00000000      0x268 ./rt-thread/components/drivers/misc/pin.o
 .debug_aranges
                0x00000000       0x20 ./rt-thread/components/drivers/misc/pin.o
 .debug_line    0x00000000      0x1e5 ./rt-thread/components/drivers/misc/pin.o
 .debug_str     0x00000000      0x6ce ./rt-thread/components/drivers/misc/pin.o
 .comment       0x00000000       0x6f ./rt-thread/components/drivers/misc/pin.o
 .debug_frame   0x00000000      0x174 ./rt-thread/components/drivers/misc/pin.o
 .ARM.attributes
                0x00000000       0x2d ./rt-thread/components/drivers/misc/pin.o
 .data          0x00000000        0x0 ./rt-thread/components/dfs/src/dfs_file.o
 .data          0x00000000        0x0 ./rt-thread/components/dfs/src/dfs_fs.o
 .bss           0x00000000        0x0 ./rt-thread/components/dfs/src/dfs_fs.o
 .text          0x00000000      0x5b0 ./rt-thread/components/dfs/src/dfs_poll.o
 .data          0x00000000        0x0 ./rt-thread/components/dfs/src/dfs_poll.o
 .bss           0x00000000        0x0 ./rt-thread/components/dfs/src/dfs_poll.o
 .debug_info    0x00000000     0x118d ./rt-thread/components/dfs/src/dfs_poll.o
 .debug_abbrev  0x00000000      0x1b9 ./rt-thread/components/dfs/src/dfs_poll.o
 .debug_loc     0x00000000      0x204 ./rt-thread/components/dfs/src/dfs_poll.o
 .debug_aranges
                0x00000000       0x20 ./rt-thread/components/dfs/src/dfs_poll.o
 .debug_line    0x00000000      0x539 ./rt-thread/components/dfs/src/dfs_poll.o
 .debug_str     0x00000000      0x9ee ./rt-thread/components/dfs/src/dfs_poll.o
 .comment       0x00000000       0x6f ./rt-thread/components/dfs/src/dfs_poll.o
 .debug_frame   0x00000000      0x130 ./rt-thread/components/dfs/src/dfs_poll.o
 .ARM.attributes
                0x00000000       0x2d ./rt-thread/components/dfs/src/dfs_poll.o
 .data          0x00000000        0x0 ./rt-thread/components/dfs/src/dfs_posix.o
 .bss           0x00000000        0x0 ./rt-thread/components/dfs/src/dfs_posix.o
 .text          0x00000000      0x628 ./rt-thread/components/dfs/src/dfs_select.o
 .data          0x00000000        0x0 ./rt-thread/components/dfs/src/dfs_select.o
 .bss           0x00000000        0x0 ./rt-thread/components/dfs/src/dfs_select.o
 .rodata        0x00000000       0x17 ./rt-thread/components/dfs/src/dfs_select.o
 .debug_info    0x00000000      0x2a2 ./rt-thread/components/dfs/src/dfs_select.o
 .debug_abbrev  0x00000000      0x10c ./rt-thread/components/dfs/src/dfs_select.o
 .debug_loc     0x00000000       0x70 ./rt-thread/components/dfs/src/dfs_select.o
 .debug_aranges
                0x00000000       0x20 ./rt-thread/components/dfs/src/dfs_select.o
 .debug_line    0x00000000      0x244 ./rt-thread/components/dfs/src/dfs_select.o
 .debug_str     0x00000000      0x297 ./rt-thread/components/dfs/src/dfs_select.o
 .comment       0x00000000       0x6f ./rt-thread/components/dfs/src/dfs_select.o
 .debug_frame   0x00000000       0x54 ./rt-thread/components/dfs/src/dfs_select.o
 .ARM.attributes
                0x00000000       0x2d ./rt-thread/components/dfs/src/dfs_select.o
 .data          0x00000000        0x0 ./rt-thread/components/dfs/filesystems/devfs/devfs.o
 .bss           0x00000000        0x0 ./rt-thread/components/dfs/filesystems/devfs/devfs.o
 .data          0x00000000        0x0 ./drivers/board.o
 .bss           0x00000000        0x0 ./drivers/board.o
 .data          0x00000000        0x0 ./drivers/drv_uart.o
 .data          0x00000000        0x0 ./applications/main.o
 .bss           0x00000000        0x0 ./applications/main.o
 .text          0x00000000      0x3bc ./HALCoGen/source/gio.o
 .data          0x00000000        0x0 ./HALCoGen/source/gio.o
 .bss           0x00000000        0x0 ./HALCoGen/source/gio.o
 .debug_info    0x00000000      0x3a4 ./HALCoGen/source/gio.o
 .debug_abbrev  0x00000000      0x130 ./HALCoGen/source/gio.o
 .debug_loc     0x00000000      0x264 ./HALCoGen/source/gio.o
 .debug_aranges
                0x00000000       0x20 ./HALCoGen/source/gio.o
 .debug_line    0x00000000      0x11d ./HALCoGen/source/gio.o
 .debug_str     0x00000000      0x29d ./HALCoGen/source/gio.o
 .comment       0x00000000       0x6f ./HALCoGen/source/gio.o
 .debug_frame   0x00000000      0x130 ./HALCoGen/source/gio.o
 .ARM.attributes
                0x00000000       0x2d ./HALCoGen/source/gio.o
 .data          0x00000000        0x0 ./HALCoGen/source/rti.o
 .bss           0x00000000        0x0 ./HALCoGen/source/rti.o
 .data          0x00000000        0x0 ./HALCoGen/source/sys_startup.o
 .bss           0x00000000        0x0 ./HALCoGen/source/sys_startup.o
 .data          0x00000000        0x0 ./HALCoGen/source/sys_vim.o
 .bss           0x00000000        0x0 ./HALCoGen/source/sys_vim.o
 .data          0x00000000        0x0 ./HALCoGen/source/system.o
 .bss           0x00000000        0x0 ./HALCoGen/source/system.o
 .text          0x00000000        0x0 d:/rt-threadstudio/repo/extract/toolchain_support_packages/arm/gnu_tools_for_arm_embedded_processors/5.4.1/bin/../lib/gcc/arm-none-eabi/5.4.1/../../../../arm-none-eabi/lib/armv7-ar/thumb/softfp\libc.a(lib_a-atoi.o)
 .data          0x00000000        0x0 d:/rt-threadstudio/repo/extract/toolchain_support_packages/arm/gnu_tools_for_arm_embedded_processors/5.4.1/bin/../lib/gcc/arm-none-eabi/5.4.1/../../../../arm-none-eabi/lib/armv7-ar/thumb/softfp\libc.a(lib_a-atoi.o)
 .bss           0x00000000        0x0 d:/rt-threadstudio/repo/extract/toolchain_support_packages/arm/gnu_tools_for_arm_embedded_processors/5.4.1/bin/../lib/gcc/arm-none-eabi/5.4.1/../../../../arm-none-eabi/lib/armv7-ar/thumb/softfp\libc.a(lib_a-atoi.o)
 .text._atoi_r  0x00000000        0x8 d:/rt-threadstudio/repo/extract/toolchain_support_packages/arm/gnu_tools_for_arm_embedded_processors/5.4.1/bin/../lib/gcc/arm-none-eabi/5.4.1/../../../../arm-none-eabi/lib/armv7-ar/thumb/softfp\libc.a(lib_a-atoi.o)
 .text          0x00000000        0x0 d:/rt-threadstudio/repo/extract/toolchain_support_packages/arm/gnu_tools_for_arm_embedded_processors/5.4.1/bin/../lib/gcc/arm-none-eabi/5.4.1/../../../../arm-none-eabi/lib/armv7-ar/thumb/softfp\libc.a(lib_a-exit.o)
 .data          0x00000000        0x0 d:/rt-threadstudio/repo/extract/toolchain_support_packages/arm/gnu_tools_for_arm_embedded_processors/5.4.1/bin/../lib/gcc/arm-none-eabi/5.4.1/../../../../arm-none-eabi/lib/armv7-ar/thumb/softfp\libc.a(lib_a-exit.o)
 .bss           0x00000000        0x0 d:/rt-threadstudio/repo/extract/toolchain_support_packages/arm/gnu_tools_for_arm_embedded_processors/5.4.1/bin/../lib/gcc/arm-none-eabi/5.4.1/../../../../arm-none-eabi/lib/armv7-ar/thumb/softfp\libc.a(lib_a-exit.o)
 .text.exit     0x00000000       0x20 d:/rt-threadstudio/repo/extract/toolchain_support_packages/arm/gnu_tools_for_arm_embedded_processors/5.4.1/bin/../lib/gcc/arm-none-eabi/5.4.1/../../../../arm-none-eabi/lib/armv7-ar/thumb/softfp\libc.a(lib_a-exit.o)
 .debug_frame   0x00000000       0x28 d:/rt-threadstudio/repo/extract/toolchain_support_packages/arm/gnu_tools_for_arm_embedded_processors/5.4.1/bin/../lib/gcc/arm-none-eabi/5.4.1/../../../../arm-none-eabi/lib/armv7-ar/thumb/softfp\libc.a(lib_a-exit.o)
 .ARM.attributes
                0x00000000       0x2b d:/rt-threadstudio/repo/extract/toolchain_support_packages/arm/gnu_tools_for_arm_embedded_processors/5.4.1/bin/../lib/gcc/arm-none-eabi/5.4.1/../../../../arm-none-eabi/lib/armv7-ar/thumb/softfp\libc.a(lib_a-exit.o)
 .text          0x00000000        0x0 d:/rt-threadstudio/repo/extract/toolchain_support_packages/arm/gnu_tools_for_arm_embedded_processors/5.4.1/bin/../lib/gcc/arm-none-eabi/5.4.1/../../../../arm-none-eabi/lib/armv7-ar/thumb/softfp\libc.a(lib_a-fclose.o)
 .data          0x00000000        0x0 d:/rt-threadstudio/repo/extract/toolchain_support_packages/arm/gnu_tools_for_arm_embedded_processors/5.4.1/bin/../lib/gcc/arm-none-eabi/5.4.1/../../../../arm-none-eabi/lib/armv7-ar/thumb/softfp\libc.a(lib_a-fclose.o)
 .bss           0x00000000        0x0 d:/rt-threadstudio/repo/extract/toolchain_support_packages/arm/gnu_tools_for_arm_embedded_processors/5.4.1/bin/../lib/gcc/arm-none-eabi/5.4.1/../../../../arm-none-eabi/lib/armv7-ar/thumb/softfp\libc.a(lib_a-fclose.o)
 .text          0x00000000        0x0 d:/rt-threadstudio/repo/extract/toolchain_support_packages/arm/gnu_tools_for_arm_embedded_processors/5.4.1/bin/../lib/gcc/arm-none-eabi/5.4.1/../../../../arm-none-eabi/lib/armv7-ar/thumb/softfp\libc.a(lib_a-fflush.o)
 .data          0x00000000        0x0 d:/rt-threadstudio/repo/extract/toolchain_support_packages/arm/gnu_tools_for_arm_embedded_processors/5.4.1/bin/../lib/gcc/arm-none-eabi/5.4.1/../../../../arm-none-eabi/lib/armv7-ar/thumb/softfp\libc.a(lib_a-fflush.o)
 .bss           0x00000000        0x0 d:/rt-threadstudio/repo/extract/toolchain_support_packages/arm/gnu_tools_for_arm_embedded_processors/5.4.1/bin/../lib/gcc/arm-none-eabi/5.4.1/../../../../arm-none-eabi/lib/armv7-ar/thumb/softfp\libc.a(lib_a-fflush.o)
 .text          0x00000000        0x0 d:/rt-threadstudio/repo/extract/toolchain_support_packages/arm/gnu_tools_for_arm_embedded_processors/5.4.1/bin/../lib/gcc/arm-none-eabi/5.4.1/../../../../arm-none-eabi/lib/armv7-ar/thumb/softfp\libc.a(lib_a-fileno.o)
 .data          0x00000000        0x0 d:/rt-threadstudio/repo/extract/toolchain_support_packages/arm/gnu_tools_for_arm_embedded_processors/5.4.1/bin/../lib/gcc/arm-none-eabi/5.4.1/../../../../arm-none-eabi/lib/armv7-ar/thumb/softfp\libc.a(lib_a-fileno.o)
 .bss           0x00000000        0x0 d:/rt-threadstudio/repo/extract/toolchain_support_packages/arm/gnu_tools_for_arm_embedded_processors/5.4.1/bin/../lib/gcc/arm-none-eabi/5.4.1/../../../../arm-none-eabi/lib/armv7-ar/thumb/softfp\libc.a(lib_a-fileno.o)
 .text          0x00000000        0x0 d:/rt-threadstudio/repo/extract/toolchain_support_packages/arm/gnu_tools_for_arm_embedded_processors/5.4.1/bin/../lib/gcc/arm-none-eabi/5.4.1/../../../../arm-none-eabi/lib/armv7-ar/thumb/softfp\libc.a(lib_a-findfp.o)
 .data          0x00000000        0x0 d:/rt-threadstudio/repo/extract/toolchain_support_packages/arm/gnu_tools_for_arm_embedded_processors/5.4.1/bin/../lib/gcc/arm-none-eabi/5.4.1/../../../../arm-none-eabi/lib/armv7-ar/thumb/softfp\libc.a(lib_a-findfp.o)
 .bss           0x00000000        0x0 d:/rt-threadstudio/repo/extract/toolchain_support_packages/arm/gnu_tools_for_arm_embedded_processors/5.4.1/bin/../lib/gcc/arm-none-eabi/5.4.1/../../../../arm-none-eabi/lib/armv7-ar/thumb/softfp\libc.a(lib_a-findfp.o)
 .text.__fp_unlock
                0x00000000        0x4 d:/rt-threadstudio/repo/extract/toolchain_support_packages/arm/gnu_tools_for_arm_embedded_processors/5.4.1/bin/../lib/gcc/arm-none-eabi/5.4.1/../../../../arm-none-eabi/lib/armv7-ar/thumb/softfp\libc.a(lib_a-findfp.o)
 .text.__fp_lock
                0x00000000        0x4 d:/rt-threadstudio/repo/extract/toolchain_support_packages/arm/gnu_tools_for_arm_embedded_processors/5.4.1/bin/../lib/gcc/arm-none-eabi/5.4.1/../../../../arm-none-eabi/lib/armv7-ar/thumb/softfp\libc.a(lib_a-findfp.o)
 .text._cleanup
                0x00000000       0x18 d:/rt-threadstudio/repo/extract/toolchain_support_packages/arm/gnu_tools_for_arm_embedded_processors/5.4.1/bin/../lib/gcc/arm-none-eabi/5.4.1/../../../../arm-none-eabi/lib/armv7-ar/thumb/softfp\libc.a(lib_a-findfp.o)
 .text.__sinit_lock_acquire
                0x00000000        0x4 d:/rt-threadstudio/repo/extract/toolchain_support_packages/arm/gnu_tools_for_arm_embedded_processors/5.4.1/bin/../lib/gcc/arm-none-eabi/5.4.1/../../../../arm-none-eabi/lib/armv7-ar/thumb/softfp\libc.a(lib_a-findfp.o)
 .text.__sinit_lock_release
                0x00000000        0x4 d:/rt-threadstudio/repo/extract/toolchain_support_packages/arm/gnu_tools_for_arm_embedded_processors/5.4.1/bin/../lib/gcc/arm-none-eabi/5.4.1/../../../../arm-none-eabi/lib/armv7-ar/thumb/softfp\libc.a(lib_a-findfp.o)
 .text.__fp_lock_all
                0x00000000       0x18 d:/rt-threadstudio/repo/extract/toolchain_support_packages/arm/gnu_tools_for_arm_embedded_processors/5.4.1/bin/../lib/gcc/arm-none-eabi/5.4.1/../../../../arm-none-eabi/lib/armv7-ar/thumb/softfp\libc.a(lib_a-findfp.o)
 .text.__fp_unlock_all
                0x00000000       0x18 d:/rt-threadstudio/repo/extract/toolchain_support_packages/arm/gnu_tools_for_arm_embedded_processors/5.4.1/bin/../lib/gcc/arm-none-eabi/5.4.1/../../../../arm-none-eabi/lib/armv7-ar/thumb/softfp\libc.a(lib_a-findfp.o)
 .text          0x00000000        0x0 d:/rt-threadstudio/repo/extract/toolchain_support_packages/arm/gnu_tools_for_arm_embedded_processors/5.4.1/bin/../lib/gcc/arm-none-eabi/5.4.1/../../../../arm-none-eabi/lib/armv7-ar/thumb/softfp\libc.a(lib_a-fopen.o)
 .data          0x00000000        0x0 d:/rt-threadstudio/repo/extract/toolchain_support_packages/arm/gnu_tools_for_arm_embedded_processors/5.4.1/bin/../lib/gcc/arm-none-eabi/5.4.1/../../../../arm-none-eabi/lib/armv7-ar/thumb/softfp\libc.a(lib_a-fopen.o)
 .bss           0x00000000        0x0 d:/rt-threadstudio/repo/extract/toolchain_support_packages/arm/gnu_tools_for_arm_embedded_processors/5.4.1/bin/../lib/gcc/arm-none-eabi/5.4.1/../../../../arm-none-eabi/lib/armv7-ar/thumb/softfp\libc.a(lib_a-fopen.o)
 .text          0x00000000        0x0 d:/rt-threadstudio/repo/extract/toolchain_support_packages/arm/gnu_tools_for_arm_embedded_processors/5.4.1/bin/../lib/gcc/arm-none-eabi/5.4.1/../../../../arm-none-eabi/lib/armv7-ar/thumb/softfp\libc.a(lib_a-fseek.o)
 .data          0x00000000        0x0 d:/rt-threadstudio/repo/extract/toolchain_support_packages/arm/gnu_tools_for_arm_embedded_processors/5.4.1/bin/../lib/gcc/arm-none-eabi/5.4.1/../../../../arm-none-eabi/lib/armv7-ar/thumb/softfp\libc.a(lib_a-fseek.o)
 .bss           0x00000000        0x0 d:/rt-threadstudio/repo/extract/toolchain_support_packages/arm/gnu_tools_for_arm_embedded_processors/5.4.1/bin/../lib/gcc/arm-none-eabi/5.4.1/../../../../arm-none-eabi/lib/armv7-ar/thumb/softfp\libc.a(lib_a-fseek.o)
 .text.fseek    0x00000000       0x1c d:/rt-threadstudio/repo/extract/toolchain_support_packages/arm/gnu_tools_for_arm_embedded_processors/5.4.1/bin/../lib/gcc/arm-none-eabi/5.4.1/../../../../arm-none-eabi/lib/armv7-ar/thumb/softfp\libc.a(lib_a-fseek.o)
 .text          0x00000000        0x0 d:/rt-threadstudio/repo/extract/toolchain_support_packages/arm/gnu_tools_for_arm_embedded_processors/5.4.1/bin/../lib/gcc/arm-none-eabi/5.4.1/../../../../arm-none-eabi/lib/armv7-ar/thumb/softfp\libc.a(lib_a-fseeko.o)
 .data          0x00000000        0x0 d:/rt-threadstudio/repo/extract/toolchain_support_packages/arm/gnu_tools_for_arm_embedded_processors/5.4.1/bin/../lib/gcc/arm-none-eabi/5.4.1/../../../../arm-none-eabi/lib/armv7-ar/thumb/softfp\libc.a(lib_a-fseeko.o)
 .bss           0x00000000        0x0 d:/rt-threadstudio/repo/extract/toolchain_support_packages/arm/gnu_tools_for_arm_embedded_processors/5.4.1/bin/../lib/gcc/arm-none-eabi/5.4.1/../../../../arm-none-eabi/lib/armv7-ar/thumb/softfp\libc.a(lib_a-fseeko.o)
 .text.fseeko   0x00000000       0x1c d:/rt-threadstudio/repo/extract/toolchain_support_packages/arm/gnu_tools_for_arm_embedded_processors/5.4.1/bin/../lib/gcc/arm-none-eabi/5.4.1/../../../../arm-none-eabi/lib/armv7-ar/thumb/softfp\libc.a(lib_a-fseeko.o)
 .text          0x00000000        0x0 d:/rt-threadstudio/repo/extract/toolchain_support_packages/arm/gnu_tools_for_arm_embedded_processors/5.4.1/bin/../lib/gcc/arm-none-eabi/5.4.1/../../../../arm-none-eabi/lib/armv7-ar/thumb/softfp\libc.a(lib_a-fwalk.o)
 .data          0x00000000        0x0 d:/rt-threadstudio/repo/extract/toolchain_support_packages/arm/gnu_tools_for_arm_embedded_processors/5.4.1/bin/../lib/gcc/arm-none-eabi/5.4.1/../../../../arm-none-eabi/lib/armv7-ar/thumb/softfp\libc.a(lib_a-fwalk.o)
 .bss           0x00000000        0x0 d:/rt-threadstudio/repo/extract/toolchain_support_packages/arm/gnu_tools_for_arm_embedded_processors/5.4.1/bin/../lib/gcc/arm-none-eabi/5.4.1/../../../../arm-none-eabi/lib/armv7-ar/thumb/softfp\libc.a(lib_a-fwalk.o)
 .text          0x00000000        0x0 d:/rt-threadstudio/repo/extract/toolchain_support_packages/arm/gnu_tools_for_arm_embedded_processors/5.4.1/bin/../lib/gcc/arm-none-eabi/5.4.1/../../../../arm-none-eabi/lib/armv7-ar/thumb/softfp\libc.a(lib_a-getc.o)
 .data          0x00000000        0x0 d:/rt-threadstudio/repo/extract/toolchain_support_packages/arm/gnu_tools_for_arm_embedded_processors/5.4.1/bin/../lib/gcc/arm-none-eabi/5.4.1/../../../../arm-none-eabi/lib/armv7-ar/thumb/softfp\libc.a(lib_a-getc.o)
 .bss           0x00000000        0x0 d:/rt-threadstudio/repo/extract/toolchain_support_packages/arm/gnu_tools_for_arm_embedded_processors/5.4.1/bin/../lib/gcc/arm-none-eabi/5.4.1/../../../../arm-none-eabi/lib/armv7-ar/thumb/softfp\libc.a(lib_a-getc.o)
 .text._getc_r  0x00000000       0x34 d:/rt-threadstudio/repo/extract/toolchain_support_packages/arm/gnu_tools_for_arm_embedded_processors/5.4.1/bin/../lib/gcc/arm-none-eabi/5.4.1/../../../../arm-none-eabi/lib/armv7-ar/thumb/softfp\libc.a(lib_a-getc.o)
 .text          0x00000000        0x0 d:/rt-threadstudio/repo/extract/toolchain_support_packages/arm/gnu_tools_for_arm_embedded_processors/5.4.1/bin/../lib/gcc/arm-none-eabi/5.4.1/../../../../arm-none-eabi/lib/armv7-ar/thumb/softfp\libc.a(lib_a-impure.o)
 .data          0x00000000        0x0 d:/rt-threadstudio/repo/extract/toolchain_support_packages/arm/gnu_tools_for_arm_embedded_processors/5.4.1/bin/../lib/gcc/arm-none-eabi/5.4.1/../../../../arm-none-eabi/lib/armv7-ar/thumb/softfp\libc.a(lib_a-impure.o)
 .bss           0x00000000        0x0 d:/rt-threadstudio/repo/extract/toolchain_support_packages/arm/gnu_tools_for_arm_embedded_processors/5.4.1/bin/../lib/gcc/arm-none-eabi/5.4.1/../../../../arm-none-eabi/lib/armv7-ar/thumb/softfp\libc.a(lib_a-impure.o)
 .text          0x00000000        0x0 d:/rt-threadstudio/repo/extract/toolchain_support_packages/arm/gnu_tools_for_arm_embedded_processors/5.4.1/bin/../lib/gcc/arm-none-eabi/5.4.1/../../../../arm-none-eabi/lib/armv7-ar/thumb/softfp\libc.a(lib_a-makebuf.o)
 .data          0x00000000        0x0 d:/rt-threadstudio/repo/extract/toolchain_support_packages/arm/gnu_tools_for_arm_embedded_processors/5.4.1/bin/../lib/gcc/arm-none-eabi/5.4.1/../../../../arm-none-eabi/lib/armv7-ar/thumb/softfp\libc.a(lib_a-makebuf.o)
 .bss           0x00000000        0x0 d:/rt-threadstudio/repo/extract/toolchain_support_packages/arm/gnu_tools_for_arm_embedded_processors/5.4.1/bin/../lib/gcc/arm-none-eabi/5.4.1/../../../../arm-none-eabi/lib/armv7-ar/thumb/softfp\libc.a(lib_a-makebuf.o)
 .text          0x00000000        0x0 d:/rt-threadstudio/repo/extract/toolchain_support_packages/arm/gnu_tools_for_arm_embedded_processors/5.4.1/bin/../lib/gcc/arm-none-eabi/5.4.1/../../../../arm-none-eabi/lib/armv7-ar/thumb/softfp\libc.a(lib_a-memcmp.o)
 .data          0x00000000        0x0 d:/rt-threadstudio/repo/extract/toolchain_support_packages/arm/gnu_tools_for_arm_embedded_processors/5.4.1/bin/../lib/gcc/arm-none-eabi/5.4.1/../../../../arm-none-eabi/lib/armv7-ar/thumb/softfp\libc.a(lib_a-memcmp.o)
 .bss           0x00000000        0x0 d:/rt-threadstudio/repo/extract/toolchain_support_packages/arm/gnu_tools_for_arm_embedded_processors/5.4.1/bin/../lib/gcc/arm-none-eabi/5.4.1/../../../../arm-none-eabi/lib/armv7-ar/thumb/softfp\libc.a(lib_a-memcmp.o)
 .data          0x00000000        0x0 d:/rt-threadstudio/repo/extract/toolchain_support_packages/arm/gnu_tools_for_arm_embedded_processors/5.4.1/bin/../lib/gcc/arm-none-eabi/5.4.1/../../../../arm-none-eabi/lib/armv7-ar/thumb/softfp\libc.a(lib_a-memcpy.o)
 .bss           0x00000000        0x0 d:/rt-threadstudio/repo/extract/toolchain_support_packages/arm/gnu_tools_for_arm_embedded_processors/5.4.1/bin/../lib/gcc/arm-none-eabi/5.4.1/../../../../arm-none-eabi/lib/armv7-ar/thumb/softfp\libc.a(lib_a-memcpy.o)
 .text          0x00000000        0x0 d:/rt-threadstudio/repo/extract/toolchain_support_packages/arm/gnu_tools_for_arm_embedded_processors/5.4.1/bin/../lib/gcc/arm-none-eabi/5.4.1/../../../../arm-none-eabi/lib/armv7-ar/thumb/softfp\libc.a(lib_a-memset.o)
 .data          0x00000000        0x0 d:/rt-threadstudio/repo/extract/toolchain_support_packages/arm/gnu_tools_for_arm_embedded_processors/5.4.1/bin/../lib/gcc/arm-none-eabi/5.4.1/../../../../arm-none-eabi/lib/armv7-ar/thumb/softfp\libc.a(lib_a-memset.o)
 .bss           0x00000000        0x0 d:/rt-threadstudio/repo/extract/toolchain_support_packages/arm/gnu_tools_for_arm_embedded_processors/5.4.1/bin/../lib/gcc/arm-none-eabi/5.4.1/../../../../arm-none-eabi/lib/armv7-ar/thumb/softfp\libc.a(lib_a-memset.o)
 .text          0x00000000        0x0 d:/rt-threadstudio/repo/extract/toolchain_support_packages/arm/gnu_tools_for_arm_embedded_processors/5.4.1/bin/../lib/gcc/arm-none-eabi/5.4.1/../../../../arm-none-eabi/lib/armv7-ar/thumb/softfp\libc.a(lib_a-putenv.o)
 .data          0x00000000        0x0 d:/rt-threadstudio/repo/extract/toolchain_support_packages/arm/gnu_tools_for_arm_embedded_processors/5.4.1/bin/../lib/gcc/arm-none-eabi/5.4.1/../../../../arm-none-eabi/lib/armv7-ar/thumb/softfp\libc.a(lib_a-putenv.o)
 .bss           0x00000000        0x0 d:/rt-threadstudio/repo/extract/toolchain_support_packages/arm/gnu_tools_for_arm_embedded_processors/5.4.1/bin/../lib/gcc/arm-none-eabi/5.4.1/../../../../arm-none-eabi/lib/armv7-ar/thumb/softfp\libc.a(lib_a-putenv.o)
 .text          0x00000000        0x0 d:/rt-threadstudio/repo/extract/toolchain_support_packages/arm/gnu_tools_for_arm_embedded_processors/5.4.1/bin/../lib/gcc/arm-none-eabi/5.4.1/../../../../arm-none-eabi/lib/armv7-ar/thumb/softfp\libc.a(lib_a-putenv_r.o)
 .data          0x00000000        0x0 d:/rt-threadstudio/repo/extract/toolchain_support_packages/arm/gnu_tools_for_arm_embedded_processors/5.4.1/bin/../lib/gcc/arm-none-eabi/5.4.1/../../../../arm-none-eabi/lib/armv7-ar/thumb/softfp\libc.a(lib_a-putenv_r.o)
 .bss           0x00000000        0x0 d:/rt-threadstudio/repo/extract/toolchain_support_packages/arm/gnu_tools_for_arm_embedded_processors/5.4.1/bin/../lib/gcc/arm-none-eabi/5.4.1/../../../../arm-none-eabi/lib/armv7-ar/thumb/softfp\libc.a(lib_a-putenv_r.o)
 .text          0x00000000        0x0 d:/rt-threadstudio/repo/extract/toolchain_support_packages/arm/gnu_tools_for_arm_embedded_processors/5.4.1/bin/../lib/gcc/arm-none-eabi/5.4.1/../../../../arm-none-eabi/lib/armv7-ar/thumb/softfp\libc.a(lib_a-puts.o)
 .data          0x00000000        0x0 d:/rt-threadstudio/repo/extract/toolchain_support_packages/arm/gnu_tools_for_arm_embedded_processors/5.4.1/bin/../lib/gcc/arm-none-eabi/5.4.1/../../../../arm-none-eabi/lib/armv7-ar/thumb/softfp\libc.a(lib_a-puts.o)
 .bss           0x00000000        0x0 d:/rt-threadstudio/repo/extract/toolchain_support_packages/arm/gnu_tools_for_arm_embedded_processors/5.4.1/bin/../lib/gcc/arm-none-eabi/5.4.1/../../../../arm-none-eabi/lib/armv7-ar/thumb/softfp\libc.a(lib_a-puts.o)
 .text          0x00000000        0x0 d:/rt-threadstudio/repo/extract/toolchain_support_packages/arm/gnu_tools_for_arm_embedded_processors/5.4.1/bin/../lib/gcc/arm-none-eabi/5.4.1/../../../../arm-none-eabi/lib/armv7-ar/thumb/softfp\libc.a(lib_a-refill.o)
 .data          0x00000000        0x0 d:/rt-threadstudio/repo/extract/toolchain_support_packages/arm/gnu_tools_for_arm_embedded_processors/5.4.1/bin/../lib/gcc/arm-none-eabi/5.4.1/../../../../arm-none-eabi/lib/armv7-ar/thumb/softfp\libc.a(lib_a-refill.o)
 .bss           0x00000000        0x0 d:/rt-threadstudio/repo/extract/toolchain_support_packages/arm/gnu_tools_for_arm_embedded_processors/5.4.1/bin/../lib/gcc/arm-none-eabi/5.4.1/../../../../arm-none-eabi/lib/armv7-ar/thumb/softfp\libc.a(lib_a-refill.o)
 .text          0x00000000        0x0 d:/rt-threadstudio/repo/extract/toolchain_support_packages/arm/gnu_tools_for_arm_embedded_processors/5.4.1/bin/../lib/gcc/arm-none-eabi/5.4.1/../../../../arm-none-eabi/lib/armv7-ar/thumb/softfp\libc.a(lib_a-rget.o)
 .data          0x00000000        0x0 d:/rt-threadstudio/repo/extract/toolchain_support_packages/arm/gnu_tools_for_arm_embedded_processors/5.4.1/bin/../lib/gcc/arm-none-eabi/5.4.1/../../../../arm-none-eabi/lib/armv7-ar/thumb/softfp\libc.a(lib_a-rget.o)
 .bss           0x00000000        0x0 d:/rt-threadstudio/repo/extract/toolchain_support_packages/arm/gnu_tools_for_arm_embedded_processors/5.4.1/bin/../lib/gcc/arm-none-eabi/5.4.1/../../../../arm-none-eabi/lib/armv7-ar/thumb/softfp\libc.a(lib_a-rget.o)
 .text.__srget  0x00000000       0x10 d:/rt-threadstudio/repo/extract/toolchain_support_packages/arm/gnu_tools_for_arm_embedded_processors/5.4.1/bin/../lib/gcc/arm-none-eabi/5.4.1/../../../../arm-none-eabi/lib/armv7-ar/thumb/softfp\libc.a(lib_a-rget.o)
 .text          0x00000000        0x0 d:/rt-threadstudio/repo/extract/toolchain_support_packages/arm/gnu_tools_for_arm_embedded_processors/5.4.1/bin/../lib/gcc/arm-none-eabi/5.4.1/../../../../arm-none-eabi/lib/armv7-ar/thumb/softfp\libc.a(lib_a-setenv_r.o)
 .data          0x00000000        0x0 d:/rt-threadstudio/repo/extract/toolchain_support_packages/arm/gnu_tools_for_arm_embedded_processors/5.4.1/bin/../lib/gcc/arm-none-eabi/5.4.1/../../../../arm-none-eabi/lib/armv7-ar/thumb/softfp\libc.a(lib_a-setenv_r.o)
 .bss           0x00000000        0x0 d:/rt-threadstudio/repo/extract/toolchain_support_packages/arm/gnu_tools_for_arm_embedded_processors/5.4.1/bin/../lib/gcc/arm-none-eabi/5.4.1/../../../../arm-none-eabi/lib/armv7-ar/thumb/softfp\libc.a(lib_a-setenv_r.o)
 .text._unsetenv_r
                0x00000000       0x84 d:/rt-threadstudio/repo/extract/toolchain_support_packages/arm/gnu_tools_for_arm_embedded_processors/5.4.1/bin/../lib/gcc/arm-none-eabi/5.4.1/../../../../arm-none-eabi/lib/armv7-ar/thumb/softfp\libc.a(lib_a-setenv_r.o)
 .text          0x00000000        0x0 d:/rt-threadstudio/repo/extract/toolchain_support_packages/arm/gnu_tools_for_arm_embedded_processors/5.4.1/bin/../lib/gcc/arm-none-eabi/5.4.1/../../../../arm-none-eabi/lib/armv7-ar/thumb/softfp\libc.a(lib_a-setvbuf.o)
 .data          0x00000000        0x0 d:/rt-threadstudio/repo/extract/toolchain_support_packages/arm/gnu_tools_for_arm_embedded_processors/5.4.1/bin/../lib/gcc/arm-none-eabi/5.4.1/../../../../arm-none-eabi/lib/armv7-ar/thumb/softfp\libc.a(lib_a-setvbuf.o)
 .bss           0x00000000        0x0 d:/rt-threadstudio/repo/extract/toolchain_support_packages/arm/gnu_tools_for_arm_embedded_processors/5.4.1/bin/../lib/gcc/arm-none-eabi/5.4.1/../../../../arm-none-eabi/lib/armv7-ar/thumb/softfp\libc.a(lib_a-setvbuf.o)
 .text          0x00000000        0x0 d:/rt-threadstudio/repo/extract/toolchain_support_packages/arm/gnu_tools_for_arm_embedded_processors/5.4.1/bin/../lib/gcc/arm-none-eabi/5.4.1/../../../../arm-none-eabi/lib/armv7-ar/thumb/softfp\libc.a(lib_a-snprintf.o)
 .data          0x00000000        0x0 d:/rt-threadstudio/repo/extract/toolchain_support_packages/arm/gnu_tools_for_arm_embedded_processors/5.4.1/bin/../lib/gcc/arm-none-eabi/5.4.1/../../../../arm-none-eabi/lib/armv7-ar/thumb/softfp\libc.a(lib_a-snprintf.o)
 .bss           0x00000000        0x0 d:/rt-threadstudio/repo/extract/toolchain_support_packages/arm/gnu_tools_for_arm_embedded_processors/5.4.1/bin/../lib/gcc/arm-none-eabi/5.4.1/../../../../arm-none-eabi/lib/armv7-ar/thumb/softfp\libc.a(lib_a-snprintf.o)
 .text._snprintf_r
                0x00000000       0x88 d:/rt-threadstudio/repo/extract/toolchain_support_packages/arm/gnu_tools_for_arm_embedded_processors/5.4.1/bin/../lib/gcc/arm-none-eabi/5.4.1/../../../../arm-none-eabi/lib/armv7-ar/thumb/softfp\libc.a(lib_a-snprintf.o)
 .text          0x00000000        0x0 d:/rt-threadstudio/repo/extract/toolchain_support_packages/arm/gnu_tools_for_arm_embedded_processors/5.4.1/bin/../lib/gcc/arm-none-eabi/5.4.1/../../../../arm-none-eabi/lib/armv7-ar/thumb/softfp\libc.a(lib_a-stdio.o)
 .data          0x00000000        0x0 d:/rt-threadstudio/repo/extract/toolchain_support_packages/arm/gnu_tools_for_arm_embedded_processors/5.4.1/bin/../lib/gcc/arm-none-eabi/5.4.1/../../../../arm-none-eabi/lib/armv7-ar/thumb/softfp\libc.a(lib_a-stdio.o)
 .bss           0x00000000        0x0 d:/rt-threadstudio/repo/extract/toolchain_support_packages/arm/gnu_tools_for_arm_embedded_processors/5.4.1/bin/../lib/gcc/arm-none-eabi/5.4.1/../../../../arm-none-eabi/lib/armv7-ar/thumb/softfp\libc.a(lib_a-stdio.o)
 .text.__seofread
                0x00000000        0x4 d:/rt-threadstudio/repo/extract/toolchain_support_packages/arm/gnu_tools_for_arm_embedded_processors/5.4.1/bin/../lib/gcc/arm-none-eabi/5.4.1/../../../../arm-none-eabi/lib/armv7-ar/thumb/softfp\libc.a(lib_a-stdio.o)
 .text          0x00000000        0x0 d:/rt-threadstudio/repo/extract/toolchain_support_packages/arm/gnu_tools_for_arm_embedded_processors/5.4.1/bin/../lib/gcc/arm-none-eabi/5.4.1/../../../../arm-none-eabi/lib/armv7-ar/thumb/softfp\libc.a(lib_a-strchr.o)
 .data          0x00000000        0x0 d:/rt-threadstudio/repo/extract/toolchain_support_packages/arm/gnu_tools_for_arm_embedded_processors/5.4.1/bin/../lib/gcc/arm-none-eabi/5.4.1/../../../../arm-none-eabi/lib/armv7-ar/thumb/softfp\libc.a(lib_a-strchr.o)
 .bss           0x00000000        0x0 d:/rt-threadstudio/repo/extract/toolchain_support_packages/arm/gnu_tools_for_arm_embedded_processors/5.4.1/bin/../lib/gcc/arm-none-eabi/5.4.1/../../../../arm-none-eabi/lib/armv7-ar/thumb/softfp\libc.a(lib_a-strchr.o)
 .data          0x00000000        0x0 d:/rt-threadstudio/repo/extract/toolchain_support_packages/arm/gnu_tools_for_arm_embedded_processors/5.4.1/bin/../lib/gcc/arm-none-eabi/5.4.1/../../../../arm-none-eabi/lib/armv7-ar/thumb/softfp\libc.a(lib_a-strcmp.o)
 .bss           0x00000000        0x0 d:/rt-threadstudio/repo/extract/toolchain_support_packages/arm/gnu_tools_for_arm_embedded_processors/5.4.1/bin/../lib/gcc/arm-none-eabi/5.4.1/../../../../arm-none-eabi/lib/armv7-ar/thumb/softfp\libc.a(lib_a-strcmp.o)
 .text          0x00000000        0x0 d:/rt-threadstudio/repo/extract/toolchain_support_packages/arm/gnu_tools_for_arm_embedded_processors/5.4.1/bin/../lib/gcc/arm-none-eabi/5.4.1/../../../../arm-none-eabi/lib/armv7-ar/thumb/softfp\libc.a(lib_a-strcpy.o)
 .data          0x00000000        0x0 d:/rt-threadstudio/repo/extract/toolchain_support_packages/arm/gnu_tools_for_arm_embedded_processors/5.4.1/bin/../lib/gcc/arm-none-eabi/5.4.1/../../../../arm-none-eabi/lib/armv7-ar/thumb/softfp\libc.a(lib_a-strcpy.o)
 .bss           0x00000000        0x0 d:/rt-threadstudio/repo/extract/toolchain_support_packages/arm/gnu_tools_for_arm_embedded_processors/5.4.1/bin/../lib/gcc/arm-none-eabi/5.4.1/../../../../arm-none-eabi/lib/armv7-ar/thumb/softfp\libc.a(lib_a-strcpy.o)
 .text          0x00000000        0x0 d:/rt-threadstudio/repo/extract/toolchain_support_packages/arm/gnu_tools_for_arm_embedded_processors/5.4.1/bin/../lib/gcc/arm-none-eabi/5.4.1/../../../../arm-none-eabi/lib/armv7-ar/thumb/softfp\libc.a(lib_a-strdup_r.o)
 .data          0x00000000        0x0 d:/rt-threadstudio/repo/extract/toolchain_support_packages/arm/gnu_tools_for_arm_embedded_processors/5.4.1/bin/../lib/gcc/arm-none-eabi/5.4.1/../../../../arm-none-eabi/lib/armv7-ar/thumb/softfp\libc.a(lib_a-strdup_r.o)
 .bss           0x00000000        0x0 d:/rt-threadstudio/repo/extract/toolchain_support_packages/arm/gnu_tools_for_arm_embedded_processors/5.4.1/bin/../lib/gcc/arm-none-eabi/5.4.1/../../../../arm-none-eabi/lib/armv7-ar/thumb/softfp\libc.a(lib_a-strdup_r.o)
 .text          0x00000000        0x0 d:/rt-threadstudio/repo/extract/toolchain_support_packages/arm/gnu_tools_for_arm_embedded_processors/5.4.1/bin/../lib/gcc/arm-none-eabi/5.4.1/../../../../arm-none-eabi/lib/armv7-ar/thumb/softfp\libc.a(lib_a-strlen-stub.o)
 .data          0x00000000        0x0 d:/rt-threadstudio/repo/extract/toolchain_support_packages/arm/gnu_tools_for_arm_embedded_processors/5.4.1/bin/../lib/gcc/arm-none-eabi/5.4.1/../../../../arm-none-eabi/lib/armv7-ar/thumb/softfp\libc.a(lib_a-strlen-stub.o)
 .bss           0x00000000        0x0 d:/rt-threadstudio/repo/extract/toolchain_support_packages/arm/gnu_tools_for_arm_embedded_processors/5.4.1/bin/../lib/gcc/arm-none-eabi/5.4.1/../../../../arm-none-eabi/lib/armv7-ar/thumb/softfp\libc.a(lib_a-strlen-stub.o)
 .text          0x00000000        0x0 d:/rt-threadstudio/repo/extract/toolchain_support_packages/arm/gnu_tools_for_arm_embedded_processors/5.4.1/bin/../lib/gcc/arm-none-eabi/5.4.1/../../../../arm-none-eabi/lib/armv7-ar/thumb/softfp\libc.a(lib_a-strncmp.o)
 .data          0x00000000        0x0 d:/rt-threadstudio/repo/extract/toolchain_support_packages/arm/gnu_tools_for_arm_embedded_processors/5.4.1/bin/../lib/gcc/arm-none-eabi/5.4.1/../../../../arm-none-eabi/lib/armv7-ar/thumb/softfp\libc.a(lib_a-strncmp.o)
 .bss           0x00000000        0x0 d:/rt-threadstudio/repo/extract/toolchain_support_packages/arm/gnu_tools_for_arm_embedded_processors/5.4.1/bin/../lib/gcc/arm-none-eabi/5.4.1/../../../../arm-none-eabi/lib/armv7-ar/thumb/softfp\libc.a(lib_a-strncmp.o)
 .text          0x00000000        0x0 d:/rt-threadstudio/repo/extract/toolchain_support_packages/arm/gnu_tools_for_arm_embedded_processors/5.4.1/bin/../lib/gcc/arm-none-eabi/5.4.1/../../../../arm-none-eabi/lib/armv7-ar/thumb/softfp\libc.a(lib_a-strncpy.o)
 .data          0x00000000        0x0 d:/rt-threadstudio/repo/extract/toolchain_support_packages/arm/gnu_tools_for_arm_embedded_processors/5.4.1/bin/../lib/gcc/arm-none-eabi/5.4.1/../../../../arm-none-eabi/lib/armv7-ar/thumb/softfp\libc.a(lib_a-strncpy.o)
 .bss           0x00000000        0x0 d:/rt-threadstudio/repo/extract/toolchain_support_packages/arm/gnu_tools_for_arm_embedded_processors/5.4.1/bin/../lib/gcc/arm-none-eabi/5.4.1/../../../../arm-none-eabi/lib/armv7-ar/thumb/softfp\libc.a(lib_a-strncpy.o)
 .text          0x00000000        0x0 d:/rt-threadstudio/repo/extract/toolchain_support_packages/arm/gnu_tools_for_arm_embedded_processors/5.4.1/bin/../lib/gcc/arm-none-eabi/5.4.1/../../../../arm-none-eabi/lib/armv7-ar/thumb/softfp\libc.a(lib_a-strrchr.o)
 .data          0x00000000        0x0 d:/rt-threadstudio/repo/extract/toolchain_support_packages/arm/gnu_tools_for_arm_embedded_processors/5.4.1/bin/../lib/gcc/arm-none-eabi/5.4.1/../../../../arm-none-eabi/lib/armv7-ar/thumb/softfp\libc.a(lib_a-strrchr.o)
 .bss           0x00000000        0x0 d:/rt-threadstudio/repo/extract/toolchain_support_packages/arm/gnu_tools_for_arm_embedded_processors/5.4.1/bin/../lib/gcc/arm-none-eabi/5.4.1/../../../../arm-none-eabi/lib/armv7-ar/thumb/softfp\libc.a(lib_a-strrchr.o)
 .text          0x00000000        0x0 d:/rt-threadstudio/repo/extract/toolchain_support_packages/arm/gnu_tools_for_arm_embedded_processors/5.4.1/bin/../lib/gcc/arm-none-eabi/5.4.1/../../../../arm-none-eabi/lib/armv7-ar/thumb/softfp\libc.a(lib_a-strstr.o)
 .data          0x00000000        0x0 d:/rt-threadstudio/repo/extract/toolchain_support_packages/arm/gnu_tools_for_arm_embedded_processors/5.4.1/bin/../lib/gcc/arm-none-eabi/5.4.1/../../../../arm-none-eabi/lib/armv7-ar/thumb/softfp\libc.a(lib_a-strstr.o)
 .bss           0x00000000        0x0 d:/rt-threadstudio/repo/extract/toolchain_support_packages/arm/gnu_tools_for_arm_embedded_processors/5.4.1/bin/../lib/gcc/arm-none-eabi/5.4.1/../../../../arm-none-eabi/lib/armv7-ar/thumb/softfp\libc.a(lib_a-strstr.o)
 .text          0x00000000        0x0 d:/rt-threadstudio/repo/extract/toolchain_support_packages/arm/gnu_tools_for_arm_embedded_processors/5.4.1/bin/../lib/gcc/arm-none-eabi/5.4.1/../../../../arm-none-eabi/lib/armv7-ar/thumb/softfp\libc.a(lib_a-strtol.o)
 .data          0x00000000        0x0 d:/rt-threadstudio/repo/extract/toolchain_support_packages/arm/gnu_tools_for_arm_embedded_processors/5.4.1/bin/../lib/gcc/arm-none-eabi/5.4.1/../../../../arm-none-eabi/lib/armv7-ar/thumb/softfp\libc.a(lib_a-strtol.o)
 .bss           0x00000000        0x0 d:/rt-threadstudio/repo/extract/toolchain_support_packages/arm/gnu_tools_for_arm_embedded_processors/5.4.1/bin/../lib/gcc/arm-none-eabi/5.4.1/../../../../arm-none-eabi/lib/armv7-ar/thumb/softfp\libc.a(lib_a-strtol.o)
 .text._strtol_r
                0x00000000       0x28 d:/rt-threadstudio/repo/extract/toolchain_support_packages/arm/gnu_tools_for_arm_embedded_processors/5.4.1/bin/../lib/gcc/arm-none-eabi/5.4.1/../../../../arm-none-eabi/lib/armv7-ar/thumb/softfp\libc.a(lib_a-strtol.o)
 .text.strtol_l
                0x00000000       0x20 d:/rt-threadstudio/repo/extract/toolchain_support_packages/arm/gnu_tools_for_arm_embedded_processors/5.4.1/bin/../lib/gcc/arm-none-eabi/5.4.1/../../../../arm-none-eabi/lib/armv7-ar/thumb/softfp\libc.a(lib_a-strtol.o)
 .text          0x00000000        0x0 d:/rt-threadstudio/repo/extract/toolchain_support_packages/arm/gnu_tools_for_arm_embedded_processors/5.4.1/bin/../lib/gcc/arm-none-eabi/5.4.1/../../../../arm-none-eabi/lib/armv7-ar/thumb/softfp\libc.a(lib_a-svfprintf.o)
 .data          0x00000000        0x0 d:/rt-threadstudio/repo/extract/toolchain_support_packages/arm/gnu_tools_for_arm_embedded_processors/5.4.1/bin/../lib/gcc/arm-none-eabi/5.4.1/../../../../arm-none-eabi/lib/armv7-ar/thumb/softfp\libc.a(lib_a-svfprintf.o)
 .bss           0x00000000        0x0 d:/rt-threadstudio/repo/extract/toolchain_support_packages/arm/gnu_tools_for_arm_embedded_processors/5.4.1/bin/../lib/gcc/arm-none-eabi/5.4.1/../../../../arm-none-eabi/lib/armv7-ar/thumb/softfp\libc.a(lib_a-svfprintf.o)
 .text          0x00000000        0x0 d:/rt-threadstudio/repo/extract/toolchain_support_packages/arm/gnu_tools_for_arm_embedded_processors/5.4.1/bin/../lib/gcc/arm-none-eabi/5.4.1/../../../../arm-none-eabi/lib/armv7-ar/thumb/softfp\libc.a(lib_a-__call_atexit.o)
 .data          0x00000000        0x0 d:/rt-threadstudio/repo/extract/toolchain_support_packages/arm/gnu_tools_for_arm_embedded_processors/5.4.1/bin/../lib/gcc/arm-none-eabi/5.4.1/../../../../arm-none-eabi/lib/armv7-ar/thumb/softfp\libc.a(lib_a-__call_atexit.o)
 .bss           0x00000000        0x0 d:/rt-threadstudio/repo/extract/toolchain_support_packages/arm/gnu_tools_for_arm_embedded_processors/5.4.1/bin/../lib/gcc/arm-none-eabi/5.4.1/../../../../arm-none-eabi/lib/armv7-ar/thumb/softfp\libc.a(lib_a-__call_atexit.o)
 .text.startup.register_fini
                0x00000000       0x18 d:/rt-threadstudio/repo/extract/toolchain_support_packages/arm/gnu_tools_for_arm_embedded_processors/5.4.1/bin/../lib/gcc/arm-none-eabi/5.4.1/../../../../arm-none-eabi/lib/armv7-ar/thumb/softfp\libc.a(lib_a-__call_atexit.o)
 .init_array.00000
                0x00000000        0x4 d:/rt-threadstudio/repo/extract/toolchain_support_packages/arm/gnu_tools_for_arm_embedded_processors/5.4.1/bin/../lib/gcc/arm-none-eabi/5.4.1/../../../../arm-none-eabi/lib/armv7-ar/thumb/softfp\libc.a(lib_a-__call_atexit.o)
 .text.__call_exitprocs
                0x00000000       0xe0 d:/rt-threadstudio/repo/extract/toolchain_support_packages/arm/gnu_tools_for_arm_embedded_processors/5.4.1/bin/../lib/gcc/arm-none-eabi/5.4.1/../../../../arm-none-eabi/lib/armv7-ar/thumb/softfp\libc.a(lib_a-__call_atexit.o)
 .debug_frame   0x00000000       0x50 d:/rt-threadstudio/repo/extract/toolchain_support_packages/arm/gnu_tools_for_arm_embedded_processors/5.4.1/bin/../lib/gcc/arm-none-eabi/5.4.1/../../../../arm-none-eabi/lib/armv7-ar/thumb/softfp\libc.a(lib_a-__call_atexit.o)
 .ARM.attributes
                0x00000000       0x2b d:/rt-threadstudio/repo/extract/toolchain_support_packages/arm/gnu_tools_for_arm_embedded_processors/5.4.1/bin/../lib/gcc/arm-none-eabi/5.4.1/../../../../arm-none-eabi/lib/armv7-ar/thumb/softfp\libc.a(lib_a-__call_atexit.o)
 .text          0x00000000        0x0 d:/rt-threadstudio/repo/extract/toolchain_support_packages/arm/gnu_tools_for_arm_embedded_processors/5.4.1/bin/../lib/gcc/arm-none-eabi/5.4.1/../../../../arm-none-eabi/lib/armv7-ar/thumb/softfp\libc.a(lib_a-atexit.o)
 .data          0x00000000        0x0 d:/rt-threadstudio/repo/extract/toolchain_support_packages/arm/gnu_tools_for_arm_embedded_processors/5.4.1/bin/../lib/gcc/arm-none-eabi/5.4.1/../../../../arm-none-eabi/lib/armv7-ar/thumb/softfp\libc.a(lib_a-atexit.o)
 .bss           0x00000000        0x0 d:/rt-threadstudio/repo/extract/toolchain_support_packages/arm/gnu_tools_for_arm_embedded_processors/5.4.1/bin/../lib/gcc/arm-none-eabi/5.4.1/../../../../arm-none-eabi/lib/armv7-ar/thumb/softfp\libc.a(lib_a-atexit.o)
 .text.atexit   0x00000000        0xc d:/rt-threadstudio/repo/extract/toolchain_support_packages/arm/gnu_tools_for_arm_embedded_processors/5.4.1/bin/../lib/gcc/arm-none-eabi/5.4.1/../../../../arm-none-eabi/lib/armv7-ar/thumb/softfp\libc.a(lib_a-atexit.o)
 .debug_frame   0x00000000       0x20 d:/rt-threadstudio/repo/extract/toolchain_support_packages/arm/gnu_tools_for_arm_embedded_processors/5.4.1/bin/../lib/gcc/arm-none-eabi/5.4.1/../../../../arm-none-eabi/lib/armv7-ar/thumb/softfp\libc.a(lib_a-atexit.o)
 .ARM.attributes
                0x00000000       0x2b d:/rt-threadstudio/repo/extract/toolchain_support_packages/arm/gnu_tools_for_arm_embedded_processors/5.4.1/bin/../lib/gcc/arm-none-eabi/5.4.1/../../../../arm-none-eabi/lib/armv7-ar/thumb/softfp\libc.a(lib_a-atexit.o)
 .text          0x00000000        0x0 d:/rt-threadstudio/repo/extract/toolchain_support_packages/arm/gnu_tools_for_arm_embedded_processors/5.4.1/bin/../lib/gcc/arm-none-eabi/5.4.1/../../../../arm-none-eabi/lib/armv7-ar/thumb/softfp\libc.a(lib_a-dtoa.o)
 .data          0x00000000        0x0 d:/rt-threadstudio/repo/extract/toolchain_support_packages/arm/gnu_tools_for_arm_embedded_processors/5.4.1/bin/../lib/gcc/arm-none-eabi/5.4.1/../../../../arm-none-eabi/lib/armv7-ar/thumb/softfp\libc.a(lib_a-dtoa.o)
 .bss           0x00000000        0x0 d:/rt-threadstudio/repo/extract/toolchain_support_packages/arm/gnu_tools_for_arm_embedded_processors/5.4.1/bin/../lib/gcc/arm-none-eabi/5.4.1/../../../../arm-none-eabi/lib/armv7-ar/thumb/softfp\libc.a(lib_a-dtoa.o)
 .text          0x00000000        0x0 d:/rt-threadstudio/repo/extract/toolchain_support_packages/arm/gnu_tools_for_arm_embedded_processors/5.4.1/bin/../lib/gcc/arm-none-eabi/5.4.1/../../../../arm-none-eabi/lib/armv7-ar/thumb/softfp\libc.a(lib_a-environ.o)
 .data          0x00000000        0x0 d:/rt-threadstudio/repo/extract/toolchain_support_packages/arm/gnu_tools_for_arm_embedded_processors/5.4.1/bin/../lib/gcc/arm-none-eabi/5.4.1/../../../../arm-none-eabi/lib/armv7-ar/thumb/softfp\libc.a(lib_a-environ.o)
 .bss           0x00000000        0x0 d:/rt-threadstudio/repo/extract/toolchain_support_packages/arm/gnu_tools_for_arm_embedded_processors/5.4.1/bin/../lib/gcc/arm-none-eabi/5.4.1/../../../../arm-none-eabi/lib/armv7-ar/thumb/softfp\libc.a(lib_a-environ.o)
 .text          0x00000000        0x0 d:/rt-threadstudio/repo/extract/toolchain_support_packages/arm/gnu_tools_for_arm_embedded_processors/5.4.1/bin/../lib/gcc/arm-none-eabi/5.4.1/../../../../arm-none-eabi/lib/armv7-ar/thumb/softfp\libc.a(lib_a-envlock.o)
 .data          0x00000000        0x0 d:/rt-threadstudio/repo/extract/toolchain_support_packages/arm/gnu_tools_for_arm_embedded_processors/5.4.1/bin/../lib/gcc/arm-none-eabi/5.4.1/../../../../arm-none-eabi/lib/armv7-ar/thumb/softfp\libc.a(lib_a-envlock.o)
 .bss           0x00000000        0x0 d:/rt-threadstudio/repo/extract/toolchain_support_packages/arm/gnu_tools_for_arm_embedded_processors/5.4.1/bin/../lib/gcc/arm-none-eabi/5.4.1/../../../../arm-none-eabi/lib/armv7-ar/thumb/softfp\libc.a(lib_a-envlock.o)
 .text          0x00000000        0x0 d:/rt-threadstudio/repo/extract/toolchain_support_packages/arm/gnu_tools_for_arm_embedded_processors/5.4.1/bin/../lib/gcc/arm-none-eabi/5.4.1/../../../../arm-none-eabi/lib/armv7-ar/thumb/softfp\libc.a(lib_a-fini.o)
 .data          0x00000000        0x0 d:/rt-threadstudio/repo/extract/toolchain_support_packages/arm/gnu_tools_for_arm_embedded_processors/5.4.1/bin/../lib/gcc/arm-none-eabi/5.4.1/../../../../arm-none-eabi/lib/armv7-ar/thumb/softfp\libc.a(lib_a-fini.o)
 .bss           0x00000000        0x0 d:/rt-threadstudio/repo/extract/toolchain_support_packages/arm/gnu_tools_for_arm_embedded_processors/5.4.1/bin/../lib/gcc/arm-none-eabi/5.4.1/../../../../arm-none-eabi/lib/armv7-ar/thumb/softfp\libc.a(lib_a-fini.o)
 .text.__libc_fini_array
                0x00000000       0x34 d:/rt-threadstudio/repo/extract/toolchain_support_packages/arm/gnu_tools_for_arm_embedded_processors/5.4.1/bin/../lib/gcc/arm-none-eabi/5.4.1/../../../../arm-none-eabi/lib/armv7-ar/thumb/softfp\libc.a(lib_a-fini.o)
 .debug_frame   0x00000000       0x34 d:/rt-threadstudio/repo/extract/toolchain_support_packages/arm/gnu_tools_for_arm_embedded_processors/5.4.1/bin/../lib/gcc/arm-none-eabi/5.4.1/../../../../arm-none-eabi/lib/armv7-ar/thumb/softfp\libc.a(lib_a-fini.o)
 .ARM.attributes
                0x00000000       0x2b d:/rt-threadstudio/repo/extract/toolchain_support_packages/arm/gnu_tools_for_arm_embedded_processors/5.4.1/bin/../lib/gcc/arm-none-eabi/5.4.1/../../../../arm-none-eabi/lib/armv7-ar/thumb/softfp\libc.a(lib_a-fini.o)
 .text          0x00000000        0x0 d:/rt-threadstudio/repo/extract/toolchain_support_packages/arm/gnu_tools_for_arm_embedded_processors/5.4.1/bin/../lib/gcc/arm-none-eabi/5.4.1/../../../../arm-none-eabi/lib/armv7-ar/thumb/softfp\libc.a(lib_a-flags.o)
 .data          0x00000000        0x0 d:/rt-threadstudio/repo/extract/toolchain_support_packages/arm/gnu_tools_for_arm_embedded_processors/5.4.1/bin/../lib/gcc/arm-none-eabi/5.4.1/../../../../arm-none-eabi/lib/armv7-ar/thumb/softfp\libc.a(lib_a-flags.o)
 .bss           0x00000000        0x0 d:/rt-threadstudio/repo/extract/toolchain_support_packages/arm/gnu_tools_for_arm_embedded_processors/5.4.1/bin/../lib/gcc/arm-none-eabi/5.4.1/../../../../arm-none-eabi/lib/armv7-ar/thumb/softfp\libc.a(lib_a-flags.o)
 .text          0x00000000        0x0 d:/rt-threadstudio/repo/extract/toolchain_support_packages/arm/gnu_tools_for_arm_embedded_processors/5.4.1/bin/../lib/gcc/arm-none-eabi/5.4.1/../../../../arm-none-eabi/lib/armv7-ar/thumb/softfp\libc.a(lib_a-fvwrite.o)
 .data          0x00000000        0x0 d:/rt-threadstudio/repo/extract/toolchain_support_packages/arm/gnu_tools_for_arm_embedded_processors/5.4.1/bin/../lib/gcc/arm-none-eabi/5.4.1/../../../../arm-none-eabi/lib/armv7-ar/thumb/softfp\libc.a(lib_a-fvwrite.o)
 .bss           0x00000000        0x0 d:/rt-threadstudio/repo/extract/toolchain_support_packages/arm/gnu_tools_for_arm_embedded_processors/5.4.1/bin/../lib/gcc/arm-none-eabi/5.4.1/../../../../arm-none-eabi/lib/armv7-ar/thumb/softfp\libc.a(lib_a-fvwrite.o)
 .text          0x00000000        0x0 d:/rt-threadstudio/repo/extract/toolchain_support_packages/arm/gnu_tools_for_arm_embedded_processors/5.4.1/bin/../lib/gcc/arm-none-eabi/5.4.1/../../../../arm-none-eabi/lib/armv7-ar/thumb/softfp\libc.a(lib_a-getenv_r.o)
 .data          0x00000000        0x0 d:/rt-threadstudio/repo/extract/toolchain_support_packages/arm/gnu_tools_for_arm_embedded_processors/5.4.1/bin/../lib/gcc/arm-none-eabi/5.4.1/../../../../arm-none-eabi/lib/armv7-ar/thumb/softfp\libc.a(lib_a-getenv_r.o)
 .bss           0x00000000        0x0 d:/rt-threadstudio/repo/extract/toolchain_support_packages/arm/gnu_tools_for_arm_embedded_processors/5.4.1/bin/../lib/gcc/arm-none-eabi/5.4.1/../../../../arm-none-eabi/lib/armv7-ar/thumb/softfp\libc.a(lib_a-getenv_r.o)
 .text._getenv_r
                0x00000000       0x10 d:/rt-threadstudio/repo/extract/toolchain_support_packages/arm/gnu_tools_for_arm_embedded_processors/5.4.1/bin/../lib/gcc/arm-none-eabi/5.4.1/../../../../arm-none-eabi/lib/armv7-ar/thumb/softfp\libc.a(lib_a-getenv_r.o)
 .text          0x00000000        0x0 d:/rt-threadstudio/repo/extract/toolchain_support_packages/arm/gnu_tools_for_arm_embedded_processors/5.4.1/bin/../lib/gcc/arm-none-eabi/5.4.1/../../../../arm-none-eabi/lib/armv7-ar/thumb/softfp\libc.a(lib_a-locale.o)
 .data          0x00000000        0x0 d:/rt-threadstudio/repo/extract/toolchain_support_packages/arm/gnu_tools_for_arm_embedded_processors/5.4.1/bin/../lib/gcc/arm-none-eabi/5.4.1/../../../../arm-none-eabi/lib/armv7-ar/thumb/softfp\libc.a(lib_a-locale.o)
 .bss           0x00000000        0x0 d:/rt-threadstudio/repo/extract/toolchain_support_packages/arm/gnu_tools_for_arm_embedded_processors/5.4.1/bin/../lib/gcc/arm-none-eabi/5.4.1/../../../../arm-none-eabi/lib/armv7-ar/thumb/softfp\libc.a(lib_a-locale.o)
 .text.__get_current_locale
                0x00000000       0x1c d:/rt-threadstudio/repo/extract/toolchain_support_packages/arm/gnu_tools_for_arm_embedded_processors/5.4.1/bin/../lib/gcc/arm-none-eabi/5.4.1/../../../../arm-none-eabi/lib/armv7-ar/thumb/softfp\libc.a(lib_a-locale.o)
 .text._setlocale_r
                0x00000000       0x54 d:/rt-threadstudio/repo/extract/toolchain_support_packages/arm/gnu_tools_for_arm_embedded_processors/5.4.1/bin/../lib/gcc/arm-none-eabi/5.4.1/../../../../arm-none-eabi/lib/armv7-ar/thumb/softfp\libc.a(lib_a-locale.o)
 .text.__locale_mb_cur_max
                0x00000000       0x20 d:/rt-threadstudio/repo/extract/toolchain_support_packages/arm/gnu_tools_for_arm_embedded_processors/5.4.1/bin/../lib/gcc/arm-none-eabi/5.4.1/../../../../arm-none-eabi/lib/armv7-ar/thumb/softfp\libc.a(lib_a-locale.o)
 .text.__locale_ctype_ptr
                0x00000000       0x18 d:/rt-threadstudio/repo/extract/toolchain_support_packages/arm/gnu_tools_for_arm_embedded_processors/5.4.1/bin/../lib/gcc/arm-none-eabi/5.4.1/../../../../arm-none-eabi/lib/armv7-ar/thumb/softfp\libc.a(lib_a-locale.o)
 .text.setlocale
                0x00000000       0x14 d:/rt-threadstudio/repo/extract/toolchain_support_packages/arm/gnu_tools_for_arm_embedded_processors/5.4.1/bin/../lib/gcc/arm-none-eabi/5.4.1/../../../../arm-none-eabi/lib/armv7-ar/thumb/softfp\libc.a(lib_a-locale.o)
 .bss._PathLocale
                0x00000000        0x4 d:/rt-threadstudio/repo/extract/toolchain_support_packages/arm/gnu_tools_for_arm_embedded_processors/5.4.1/bin/../lib/gcc/arm-none-eabi/5.4.1/../../../../arm-none-eabi/lib/armv7-ar/thumb/softfp\libc.a(lib_a-locale.o)
 .text          0x00000000        0x0 d:/rt-threadstudio/repo/extract/toolchain_support_packages/arm/gnu_tools_for_arm_embedded_processors/5.4.1/bin/../lib/gcc/arm-none-eabi/5.4.1/../../../../arm-none-eabi/lib/armv7-ar/thumb/softfp\libc.a(lib_a-localeconv.o)
 .data          0x00000000        0x0 d:/rt-threadstudio/repo/extract/toolchain_support_packages/arm/gnu_tools_for_arm_embedded_processors/5.4.1/bin/../lib/gcc/arm-none-eabi/5.4.1/../../../../arm-none-eabi/lib/armv7-ar/thumb/softfp\libc.a(lib_a-localeconv.o)
 .bss           0x00000000        0x0 d:/rt-threadstudio/repo/extract/toolchain_support_packages/arm/gnu_tools_for_arm_embedded_processors/5.4.1/bin/../lib/gcc/arm-none-eabi/5.4.1/../../../../arm-none-eabi/lib/armv7-ar/thumb/softfp\libc.a(lib_a-localeconv.o)
 .text.__localeconv_l
                0x00000000        0x4 d:/rt-threadstudio/repo/extract/toolchain_support_packages/arm/gnu_tools_for_arm_embedded_processors/5.4.1/bin/../lib/gcc/arm-none-eabi/5.4.1/../../../../arm-none-eabi/lib/armv7-ar/thumb/softfp\libc.a(lib_a-localeconv.o)
 .text.localeconv
                0x00000000       0x20 d:/rt-threadstudio/repo/extract/toolchain_support_packages/arm/gnu_tools_for_arm_embedded_processors/5.4.1/bin/../lib/gcc/arm-none-eabi/5.4.1/../../../../arm-none-eabi/lib/armv7-ar/thumb/softfp\libc.a(lib_a-localeconv.o)
 .text          0x00000000        0x0 d:/rt-threadstudio/repo/extract/toolchain_support_packages/arm/gnu_tools_for_arm_embedded_processors/5.4.1/bin/../lib/gcc/arm-none-eabi/5.4.1/../../../../arm-none-eabi/lib/armv7-ar/thumb/softfp\libc.a(lib_a-malloc.o)
 .data          0x00000000        0x0 d:/rt-threadstudio/repo/extract/toolchain_support_packages/arm/gnu_tools_for_arm_embedded_processors/5.4.1/bin/../lib/gcc/arm-none-eabi/5.4.1/../../../../arm-none-eabi/lib/armv7-ar/thumb/softfp\libc.a(lib_a-malloc.o)
 .bss           0x00000000        0x0 d:/rt-threadstudio/repo/extract/toolchain_support_packages/arm/gnu_tools_for_arm_embedded_processors/5.4.1/bin/../lib/gcc/arm-none-eabi/5.4.1/../../../../arm-none-eabi/lib/armv7-ar/thumb/softfp\libc.a(lib_a-malloc.o)
 .text.free     0x00000000       0x10 d:/rt-threadstudio/repo/extract/toolchain_support_packages/arm/gnu_tools_for_arm_embedded_processors/5.4.1/bin/../lib/gcc/arm-none-eabi/5.4.1/../../../../arm-none-eabi/lib/armv7-ar/thumb/softfp\libc.a(lib_a-malloc.o)
 .text          0x00000000        0x0 d:/rt-threadstudio/repo/extract/toolchain_support_packages/arm/gnu_tools_for_arm_embedded_processors/5.4.1/bin/../lib/gcc/arm-none-eabi/5.4.1/../../../../arm-none-eabi/lib/armv7-ar/thumb/softfp\libc.a(lib_a-mbtowc_r.o)
 .data          0x00000000        0x0 d:/rt-threadstudio/repo/extract/toolchain_support_packages/arm/gnu_tools_for_arm_embedded_processors/5.4.1/bin/../lib/gcc/arm-none-eabi/5.4.1/../../../../arm-none-eabi/lib/armv7-ar/thumb/softfp\libc.a(lib_a-mbtowc_r.o)
 .bss           0x00000000        0x0 d:/rt-threadstudio/repo/extract/toolchain_support_packages/arm/gnu_tools_for_arm_embedded_processors/5.4.1/bin/../lib/gcc/arm-none-eabi/5.4.1/../../../../arm-none-eabi/lib/armv7-ar/thumb/softfp\libc.a(lib_a-mbtowc_r.o)
 .text._mbtowc_r
                0x00000000       0x28 d:/rt-threadstudio/repo/extract/toolchain_support_packages/arm/gnu_tools_for_arm_embedded_processors/5.4.1/bin/../lib/gcc/arm-none-eabi/5.4.1/../../../../arm-none-eabi/lib/armv7-ar/thumb/softfp\libc.a(lib_a-mbtowc_r.o)
 .text          0x00000000        0x0 d:/rt-threadstudio/repo/extract/toolchain_support_packages/arm/gnu_tools_for_arm_embedded_processors/5.4.1/bin/../lib/gcc/arm-none-eabi/5.4.1/../../../../arm-none-eabi/lib/armv7-ar/thumb/softfp\libc.a(lib_a-memchr-stub.o)
 .data          0x00000000        0x0 d:/rt-threadstudio/repo/extract/toolchain_support_packages/arm/gnu_tools_for_arm_embedded_processors/5.4.1/bin/../lib/gcc/arm-none-eabi/5.4.1/../../../../arm-none-eabi/lib/armv7-ar/thumb/softfp\libc.a(lib_a-memchr-stub.o)
 .bss           0x00000000        0x0 d:/rt-threadstudio/repo/extract/toolchain_support_packages/arm/gnu_tools_for_arm_embedded_processors/5.4.1/bin/../lib/gcc/arm-none-eabi/5.4.1/../../../../arm-none-eabi/lib/armv7-ar/thumb/softfp\libc.a(lib_a-memchr-stub.o)
 .text          0x00000000        0x0 d:/rt-threadstudio/repo/extract/toolchain_support_packages/arm/gnu_tools_for_arm_embedded_processors/5.4.1/bin/../lib/gcc/arm-none-eabi/5.4.1/../../../../arm-none-eabi/lib/armv7-ar/thumb/softfp\libc.a(lib_a-memmove.o)
 .data          0x00000000        0x0 d:/rt-threadstudio/repo/extract/toolchain_support_packages/arm/gnu_tools_for_arm_embedded_processors/5.4.1/bin/../lib/gcc/arm-none-eabi/5.4.1/../../../../arm-none-eabi/lib/armv7-ar/thumb/softfp\libc.a(lib_a-memmove.o)
 .bss           0x00000000        0x0 d:/rt-threadstudio/repo/extract/toolchain_support_packages/arm/gnu_tools_for_arm_embedded_processors/5.4.1/bin/../lib/gcc/arm-none-eabi/5.4.1/../../../../arm-none-eabi/lib/armv7-ar/thumb/softfp\libc.a(lib_a-memmove.o)
 .text          0x00000000        0x0 d:/rt-threadstudio/repo/extract/toolchain_support_packages/arm/gnu_tools_for_arm_embedded_processors/5.4.1/bin/../lib/gcc/arm-none-eabi/5.4.1/../../../../arm-none-eabi/lib/armv7-ar/thumb/softfp\libc.a(lib_a-mprec.o)
 .data          0x00000000        0x0 d:/rt-threadstudio/repo/extract/toolchain_support_packages/arm/gnu_tools_for_arm_embedded_processors/5.4.1/bin/../lib/gcc/arm-none-eabi/5.4.1/../../../../arm-none-eabi/lib/armv7-ar/thumb/softfp\libc.a(lib_a-mprec.o)
 .bss           0x00000000        0x0 d:/rt-threadstudio/repo/extract/toolchain_support_packages/arm/gnu_tools_for_arm_embedded_processors/5.4.1/bin/../lib/gcc/arm-none-eabi/5.4.1/../../../../arm-none-eabi/lib/armv7-ar/thumb/softfp\libc.a(lib_a-mprec.o)
 .text.__s2b    0x00000000       0x98 d:/rt-threadstudio/repo/extract/toolchain_support_packages/arm/gnu_tools_for_arm_embedded_processors/5.4.1/bin/../lib/gcc/arm-none-eabi/5.4.1/../../../../arm-none-eabi/lib/armv7-ar/thumb/softfp\libc.a(lib_a-mprec.o)
 .text.__ulp    0x00000000       0x44 d:/rt-threadstudio/repo/extract/toolchain_support_packages/arm/gnu_tools_for_arm_embedded_processors/5.4.1/bin/../lib/gcc/arm-none-eabi/5.4.1/../../../../arm-none-eabi/lib/armv7-ar/thumb/softfp\libc.a(lib_a-mprec.o)
 .text.__b2d    0x00000000       0xd4 d:/rt-threadstudio/repo/extract/toolchain_support_packages/arm/gnu_tools_for_arm_embedded_processors/5.4.1/bin/../lib/gcc/arm-none-eabi/5.4.1/../../../../arm-none-eabi/lib/armv7-ar/thumb/softfp\libc.a(lib_a-mprec.o)
 .text.__ratio  0x00000000       0x60 d:/rt-threadstudio/repo/extract/toolchain_support_packages/arm/gnu_tools_for_arm_embedded_processors/5.4.1/bin/../lib/gcc/arm-none-eabi/5.4.1/../../../../arm-none-eabi/lib/armv7-ar/thumb/softfp\libc.a(lib_a-mprec.o)
 .text._mprec_log10
                0x00000000       0x2c d:/rt-threadstudio/repo/extract/toolchain_support_packages/arm/gnu_tools_for_arm_embedded_processors/5.4.1/bin/../lib/gcc/arm-none-eabi/5.4.1/../../../../arm-none-eabi/lib/armv7-ar/thumb/softfp\libc.a(lib_a-mprec.o)
 .text.__copybits
                0x00000000       0x48 d:/rt-threadstudio/repo/extract/toolchain_support_packages/arm/gnu_tools_for_arm_embedded_processors/5.4.1/bin/../lib/gcc/arm-none-eabi/5.4.1/../../../../arm-none-eabi/lib/armv7-ar/thumb/softfp\libc.a(lib_a-mprec.o)
 .text.__any_on
                0x00000000       0x60 d:/rt-threadstudio/repo/extract/toolchain_support_packages/arm/gnu_tools_for_arm_embedded_processors/5.4.1/bin/../lib/gcc/arm-none-eabi/5.4.1/../../../../arm-none-eabi/lib/armv7-ar/thumb/softfp\libc.a(lib_a-mprec.o)
 .rodata.__mprec_tinytens
                0x00000000       0x28 d:/rt-threadstudio/repo/extract/toolchain_support_packages/arm/gnu_tools_for_arm_embedded_processors/5.4.1/bin/../lib/gcc/arm-none-eabi/5.4.1/../../../../arm-none-eabi/lib/armv7-ar/thumb/softfp\libc.a(lib_a-mprec.o)
 .text          0x00000000        0x0 d:/rt-threadstudio/repo/extract/toolchain_support_packages/arm/gnu_tools_for_arm_embedded_processors/5.4.1/bin/../lib/gcc/arm-none-eabi/5.4.1/../../../../arm-none-eabi/lib/armv7-ar/thumb/softfp\libc.a(lib_a-svfiprintf.o)
 .data          0x00000000        0x0 d:/rt-threadstudio/repo/extract/toolchain_support_packages/arm/gnu_tools_for_arm_embedded_processors/5.4.1/bin/../lib/gcc/arm-none-eabi/5.4.1/../../../../arm-none-eabi/lib/armv7-ar/thumb/softfp\libc.a(lib_a-svfiprintf.o)
 .bss           0x00000000        0x0 d:/rt-threadstudio/repo/extract/toolchain_support_packages/arm/gnu_tools_for_arm_embedded_processors/5.4.1/bin/../lib/gcc/arm-none-eabi/5.4.1/../../../../arm-none-eabi/lib/armv7-ar/thumb/softfp\libc.a(lib_a-svfiprintf.o)
 .text._svfiprintf_r
                0x00000000      0xce8 d:/rt-threadstudio/repo/extract/toolchain_support_packages/arm/gnu_tools_for_arm_embedded_processors/5.4.1/bin/../lib/gcc/arm-none-eabi/5.4.1/../../../../arm-none-eabi/lib/armv7-ar/thumb/softfp\libc.a(lib_a-svfiprintf.o)
 .rodata.blanks.7237
                0x00000000       0x10 d:/rt-threadstudio/repo/extract/toolchain_support_packages/arm/gnu_tools_for_arm_embedded_processors/5.4.1/bin/../lib/gcc/arm-none-eabi/5.4.1/../../../../arm-none-eabi/lib/armv7-ar/thumb/softfp\libc.a(lib_a-svfiprintf.o)
 .rodata.str1.4
                0x00000000       0x2f d:/rt-threadstudio/repo/extract/toolchain_support_packages/arm/gnu_tools_for_arm_embedded_processors/5.4.1/bin/../lib/gcc/arm-none-eabi/5.4.1/../../../../arm-none-eabi/lib/armv7-ar/thumb/softfp\libc.a(lib_a-svfiprintf.o)
 .rodata.zeroes.7238
                0x00000000       0x10 d:/rt-threadstudio/repo/extract/toolchain_support_packages/arm/gnu_tools_for_arm_embedded_processors/5.4.1/bin/../lib/gcc/arm-none-eabi/5.4.1/../../../../arm-none-eabi/lib/armv7-ar/thumb/softfp\libc.a(lib_a-svfiprintf.o)
 .text          0x00000000        0x0 d:/rt-threadstudio/repo/extract/toolchain_support_packages/arm/gnu_tools_for_arm_embedded_processors/5.4.1/bin/../lib/gcc/arm-none-eabi/5.4.1/../../../../arm-none-eabi/lib/armv7-ar/thumb/softfp\libc.a(lib_a-wctomb_r.o)
 .data          0x00000000        0x0 d:/rt-threadstudio/repo/extract/toolchain_support_packages/arm/gnu_tools_for_arm_embedded_processors/5.4.1/bin/../lib/gcc/arm-none-eabi/5.4.1/../../../../arm-none-eabi/lib/armv7-ar/thumb/softfp\libc.a(lib_a-wctomb_r.o)
 .bss           0x00000000        0x0 d:/rt-threadstudio/repo/extract/toolchain_support_packages/arm/gnu_tools_for_arm_embedded_processors/5.4.1/bin/../lib/gcc/arm-none-eabi/5.4.1/../../../../arm-none-eabi/lib/armv7-ar/thumb/softfp\libc.a(lib_a-wctomb_r.o)
 .text._wctomb_r
                0x00000000       0x28 d:/rt-threadstudio/repo/extract/toolchain_support_packages/arm/gnu_tools_for_arm_embedded_processors/5.4.1/bin/../lib/gcc/arm-none-eabi/5.4.1/../../../../arm-none-eabi/lib/armv7-ar/thumb/softfp\libc.a(lib_a-wctomb_r.o)
 .text          0x00000000        0x0 d:/rt-threadstudio/repo/extract/toolchain_support_packages/arm/gnu_tools_for_arm_embedded_processors/5.4.1/bin/../lib/gcc/arm-none-eabi/5.4.1/../../../../arm-none-eabi/lib/armv7-ar/thumb/softfp\libc.a(lib_a-wsetup.o)
 .data          0x00000000        0x0 d:/rt-threadstudio/repo/extract/toolchain_support_packages/arm/gnu_tools_for_arm_embedded_processors/5.4.1/bin/../lib/gcc/arm-none-eabi/5.4.1/../../../../arm-none-eabi/lib/armv7-ar/thumb/softfp\libc.a(lib_a-wsetup.o)
 .bss           0x00000000        0x0 d:/rt-threadstudio/repo/extract/toolchain_support_packages/arm/gnu_tools_for_arm_embedded_processors/5.4.1/bin/../lib/gcc/arm-none-eabi/5.4.1/../../../../arm-none-eabi/lib/armv7-ar/thumb/softfp\libc.a(lib_a-wsetup.o)
 .text          0x00000000        0x0 d:/rt-threadstudio/repo/extract/toolchain_support_packages/arm/gnu_tools_for_arm_embedded_processors/5.4.1/bin/../lib/gcc/arm-none-eabi/5.4.1/../../../../arm-none-eabi/lib/armv7-ar/thumb/softfp\libc.a(lib_a-__atexit.o)
 .data          0x00000000        0x0 d:/rt-threadstudio/repo/extract/toolchain_support_packages/arm/gnu_tools_for_arm_embedded_processors/5.4.1/bin/../lib/gcc/arm-none-eabi/5.4.1/../../../../arm-none-eabi/lib/armv7-ar/thumb/softfp\libc.a(lib_a-__atexit.o)
 .bss           0x00000000        0x0 d:/rt-threadstudio/repo/extract/toolchain_support_packages/arm/gnu_tools_for_arm_embedded_processors/5.4.1/bin/../lib/gcc/arm-none-eabi/5.4.1/../../../../arm-none-eabi/lib/armv7-ar/thumb/softfp\libc.a(lib_a-__atexit.o)
 .text.__register_exitproc
                0x00000000       0xb0 d:/rt-threadstudio/repo/extract/toolchain_support_packages/arm/gnu_tools_for_arm_embedded_processors/5.4.1/bin/../lib/gcc/arm-none-eabi/5.4.1/../../../../arm-none-eabi/lib/armv7-ar/thumb/softfp\libc.a(lib_a-__atexit.o)
 .debug_frame   0x00000000       0x34 d:/rt-threadstudio/repo/extract/toolchain_support_packages/arm/gnu_tools_for_arm_embedded_processors/5.4.1/bin/../lib/gcc/arm-none-eabi/5.4.1/../../../../arm-none-eabi/lib/armv7-ar/thumb/softfp\libc.a(lib_a-__atexit.o)
 .ARM.attributes
                0x00000000       0x2b d:/rt-threadstudio/repo/extract/toolchain_support_packages/arm/gnu_tools_for_arm_embedded_processors/5.4.1/bin/../lib/gcc/arm-none-eabi/5.4.1/../../../../arm-none-eabi/lib/armv7-ar/thumb/softfp\libc.a(lib_a-__atexit.o)
 .text          0x00000000        0x0 d:/rt-threadstudio/repo/extract/toolchain_support_packages/arm/gnu_tools_for_arm_embedded_processors/5.4.1/bin/../lib/gcc/arm-none-eabi/5.4.1/../../../../arm-none-eabi/lib/armv7-ar/thumb/softfp\libc.a(lib_a-ctype_.o)
 .data          0x00000000        0x0 d:/rt-threadstudio/repo/extract/toolchain_support_packages/arm/gnu_tools_for_arm_embedded_processors/5.4.1/bin/../lib/gcc/arm-none-eabi/5.4.1/../../../../arm-none-eabi/lib/armv7-ar/thumb/softfp\libc.a(lib_a-ctype_.o)
 .bss           0x00000000        0x0 d:/rt-threadstudio/repo/extract/toolchain_support_packages/arm/gnu_tools_for_arm_embedded_processors/5.4.1/bin/../lib/gcc/arm-none-eabi/5.4.1/../../../../arm-none-eabi/lib/armv7-ar/thumb/softfp\libc.a(lib_a-ctype_.o)
 .data          0x00000000        0x0 d:/rt-threadstudio/repo/extract/toolchain_support_packages/arm/gnu_tools_for_arm_embedded_processors/5.4.1/bin/../lib/gcc/arm-none-eabi/5.4.1/armv7-ar/thumb/softfp\libgcc.a(_udivsi3.o)
 .bss           0x00000000        0x0 d:/rt-threadstudio/repo/extract/toolchain_support_packages/arm/gnu_tools_for_arm_embedded_processors/5.4.1/bin/../lib/gcc/arm-none-eabi/5.4.1/armv7-ar/thumb/softfp\libgcc.a(_udivsi3.o)
 .data          0x00000000        0x0 d:/rt-threadstudio/repo/extract/toolchain_support_packages/arm/gnu_tools_for_arm_embedded_processors/5.4.1/bin/../lib/gcc/arm-none-eabi/5.4.1/armv7-ar/thumb/softfp\libgcc.a(_divsi3.o)
 .bss           0x00000000        0x0 d:/rt-threadstudio/repo/extract/toolchain_support_packages/arm/gnu_tools_for_arm_embedded_processors/5.4.1/bin/../lib/gcc/arm-none-eabi/5.4.1/armv7-ar/thumb/softfp\libgcc.a(_divsi3.o)
 .data          0x00000000        0x0 d:/rt-threadstudio/repo/extract/toolchain_support_packages/arm/gnu_tools_for_arm_embedded_processors/5.4.1/bin/../lib/gcc/arm-none-eabi/5.4.1/armv7-ar/thumb/softfp\libgcc.a(_dvmd_tls.o)
 .bss           0x00000000        0x0 d:/rt-threadstudio/repo/extract/toolchain_support_packages/arm/gnu_tools_for_arm_embedded_processors/5.4.1/bin/../lib/gcc/arm-none-eabi/5.4.1/armv7-ar/thumb/softfp\libgcc.a(_dvmd_tls.o)
 .data          0x00000000        0x0 d:/rt-threadstudio/repo/extract/toolchain_support_packages/arm/gnu_tools_for_arm_embedded_processors/5.4.1/bin/../lib/gcc/arm-none-eabi/5.4.1/armv7-ar/thumb/softfp\libgcc.a(_aeabi_uldivmod.o)
 .bss           0x00000000        0x0 d:/rt-threadstudio/repo/extract/toolchain_support_packages/arm/gnu_tools_for_arm_embedded_processors/5.4.1/bin/../lib/gcc/arm-none-eabi/5.4.1/armv7-ar/thumb/softfp\libgcc.a(_aeabi_uldivmod.o)
 .data          0x00000000        0x0 d:/rt-threadstudio/repo/extract/toolchain_support_packages/arm/gnu_tools_for_arm_embedded_processors/5.4.1/bin/../lib/gcc/arm-none-eabi/5.4.1/armv7-ar/thumb/softfp\libgcc.a(_udivmoddi4.o)
 .bss           0x00000000        0x0 d:/rt-threadstudio/repo/extract/toolchain_support_packages/arm/gnu_tools_for_arm_embedded_processors/5.4.1/bin/../lib/gcc/arm-none-eabi/5.4.1/armv7-ar/thumb/softfp\libgcc.a(_udivmoddi4.o)
 .ARM.extab     0x00000000        0x0 d:/rt-threadstudio/repo/extract/toolchain_support_packages/arm/gnu_tools_for_arm_embedded_processors/5.4.1/bin/../lib/gcc/arm-none-eabi/5.4.1/armv7-ar/thumb/softfp\libgcc.a(_udivmoddi4.o)
 .text          0x00000000        0x0 d:/rt-threadstudio/repo/extract/toolchain_support_packages/arm/gnu_tools_for_arm_embedded_processors/5.4.1/bin/../lib/gcc/arm-none-eabi/5.4.1/armv7-ar/thumb/softfp/crtend.o
 .data          0x00000000        0x0 d:/rt-threadstudio/repo/extract/toolchain_support_packages/arm/gnu_tools_for_arm_embedded_processors/5.4.1/bin/../lib/gcc/arm-none-eabi/5.4.1/armv7-ar/thumb/softfp/crtend.o
 .bss           0x00000000        0x0 d:/rt-threadstudio/repo/extract/toolchain_support_packages/arm/gnu_tools_for_arm_embedded_processors/5.4.1/bin/../lib/gcc/arm-none-eabi/5.4.1/armv7-ar/thumb/softfp/crtend.o
 .eh_frame      0x00000000        0x4 d:/rt-threadstudio/repo/extract/toolchain_support_packages/arm/gnu_tools_for_arm_embedded_processors/5.4.1/bin/../lib/gcc/arm-none-eabi/5.4.1/armv7-ar/thumb/softfp/crtend.o
 .jcr           0x00000000        0x4 d:/rt-threadstudio/repo/extract/toolchain_support_packages/arm/gnu_tools_for_arm_embedded_processors/5.4.1/bin/../lib/gcc/arm-none-eabi/5.4.1/armv7-ar/thumb/softfp/crtend.o
 .ARM.attributes
                0x00000000       0x2b d:/rt-threadstudio/repo/extract/toolchain_support_packages/arm/gnu_tools_for_arm_embedded_processors/5.4.1/bin/../lib/gcc/arm-none-eabi/5.4.1/armv7-ar/thumb/softfp/crtend.o
 .text          0x00000000        0x0 d:/rt-threadstudio/repo/extract/toolchain_support_packages/arm/gnu_tools_for_arm_embedded_processors/5.4.1/bin/../lib/gcc/arm-none-eabi/5.4.1/armv7-ar/thumb/softfp/crtn.o
 .data          0x00000000        0x0 d:/rt-threadstudio/repo/extract/toolchain_support_packages/arm/gnu_tools_for_arm_embedded_processors/5.4.1/bin/../lib/gcc/arm-none-eabi/5.4.1/armv7-ar/thumb/softfp/crtn.o
 .bss           0x00000000        0x0 d:/rt-threadstudio/repo/extract/toolchain_support_packages/arm/gnu_tools_for_arm_embedded_processors/5.4.1/bin/../lib/gcc/arm-none-eabi/5.4.1/armv7-ar/thumb/softfp/crtn.o
 .init          0x00000000        0x8 d:/rt-threadstudio/repo/extract/toolchain_support_packages/arm/gnu_tools_for_arm_embedded_processors/5.4.1/bin/../lib/gcc/arm-none-eabi/5.4.1/armv7-ar/thumb/softfp/crtn.o
 .fini          0x00000000        0x8 d:/rt-threadstudio/repo/extract/toolchain_support_packages/arm/gnu_tools_for_arm_embedded_processors/5.4.1/bin/../lib/gcc/arm-none-eabi/5.4.1/armv7-ar/thumb/softfp/crtn.o
 .ARM.attributes
                0x00000000       0x1b d:/rt-threadstudio/repo/extract/toolchain_support_packages/arm/gnu_tools_for_arm_embedded_processors/5.4.1/bin/../lib/gcc/arm-none-eabi/5.4.1/armv7-ar/thumb/softfp/crtn.o

Memory Configuration

Name             Origin             Length             Attributes
CODE             0x00000000         0x00300000         xr
DATA             0x08000000         0x00040000         rw
*default*        0x00000000         0xffffffff

Linker script and memory map

LOAD d:/rt-threadstudio/repo/extract/toolchain_support_packages/arm/gnu_tools_for_arm_embedded_processors/5.4.1/bin/../lib/gcc/arm-none-eabi/5.4.1/armv7-ar/thumb/softfp/crti.o
LOAD d:/rt-threadstudio/repo/extract/toolchain_support_packages/arm/gnu_tools_for_arm_embedded_processors/5.4.1/bin/../lib/gcc/arm-none-eabi/5.4.1/armv7-ar/thumb/softfp/crtbegin.o
LOAD d:/rt-threadstudio/repo/extract/toolchain_support_packages/arm/gnu_tools_for_arm_embedded_processors/5.4.1/bin/../lib/gcc/arm-none-eabi/5.4.1/../../../../arm-none-eabi/lib/armv7-ar/thumb/softfp/crt0.o
LOAD ./rt-thread/src/clock.o
LOAD ./rt-thread/src/components.o
LOAD ./rt-thread/src/device.o
LOAD ./rt-thread/src/idle.o
LOAD ./rt-thread/src/ipc.o
LOAD ./rt-thread/src/irq.o
LOAD ./rt-thread/src/kservice.o
LOAD ./rt-thread/src/mem.o
LOAD ./rt-thread/src/mempool.o
LOAD ./rt-thread/src/object.o
LOAD ./rt-thread/src/scheduler.o
LOAD ./rt-thread/src/thread.o
LOAD ./rt-thread/src/timer.o
LOAD ./rt-thread/libcpu/arm/common/backtrace.o
LOAD ./rt-thread/libcpu/arm/common/div0.o
LOAD ./rt-thread/libcpu/arm/common/showmem.o
LOAD ./rt-thread/libcpu/arm/am335x/context_gcc.o
LOAD ./rt-thread/libcpu/arm/am335x/cpu.o
LOAD ./rt-thread/libcpu/arm/am335x/interrupt.o
LOAD ./rt-thread/libcpu/arm/am335x/stack.o
LOAD ./rt-thread/libcpu/arm/am335x/start_gcc.o
LOAD ./rt-thread/libcpu/arm/am335x/trap.o
LOAD ./rt-thread/libcpu/arm/am335x/vector_gcc.o
LOAD ./rt-thread/components/libc/compilers/gcc/newlib/libc.o
LOAD ./rt-thread/components/libc/compilers/gcc/newlib/stdio.o
LOAD ./rt-thread/components/libc/compilers/gcc/newlib/syscalls.o
LOAD ./rt-thread/components/libc/compilers/common/delay.o
LOAD ./rt-thread/components/libc/compilers/common/stdlib.o
LOAD ./rt-thread/components/libc/compilers/common/time.o
LOAD ./rt-thread/components/libc/compilers/common/unistd.o
LOAD ./rt-thread/components/finsh/cmd.o
LOAD ./rt-thread/components/finsh/msh.o
LOAD ./rt-thread/components/finsh/msh_file.o
LOAD ./rt-thread/components/finsh/shell.o
LOAD ./rt-thread/components/drivers/src/completion.o
LOAD ./rt-thread/components/drivers/src/dataqueue.o
LOAD ./rt-thread/components/drivers/src/pipe.o
LOAD ./rt-thread/components/drivers/src/ringblk_buf.o
LOAD ./rt-thread/components/drivers/src/ringbuffer.o
LOAD ./rt-thread/components/drivers/src/waitqueue.o
LOAD ./rt-thread/components/drivers/src/workqueue.o
LOAD ./rt-thread/components/drivers/serial/serial.o
LOAD ./rt-thread/components/drivers/misc/pin.o
LOAD ./rt-thread/components/dfs/src/dfs.o
LOAD ./rt-thread/components/dfs/src/dfs_file.o
LOAD ./rt-thread/components/dfs/src/dfs_fs.o
LOAD ./rt-thread/components/dfs/src/dfs_poll.o
LOAD ./rt-thread/components/dfs/src/dfs_posix.o
LOAD ./rt-thread/components/dfs/src/dfs_select.o
LOAD ./rt-thread/components/dfs/filesystems/devfs/devfs.o
LOAD ./drivers/board.o
LOAD ./drivers/drv_uart.o
LOAD ./applications/main.o
LOAD ./HALCoGen/source/gio.o
LOAD ./HALCoGen/source/rti.o
LOAD ./HALCoGen/source/sys_startup.o
LOAD ./HALCoGen/source/sys_vim.o
LOAD ./HALCoGen/source/system.o
LOAD d:/rt-threadstudio/repo/extract/toolchain_support_packages/arm/gnu_tools_for_arm_embedded_processors/5.4.1/bin/../lib/gcc/arm-none-eabi/5.4.1/../../../../arm-none-eabi/lib/armv7-ar/thumb/softfp\libm.a
LOAD d:/rt-threadstudio/repo/extract/toolchain_support_packages/arm/gnu_tools_for_arm_embedded_processors/5.4.1/bin/../lib/gcc/arm-none-eabi/5.4.1/../../../../arm-none-eabi/lib/armv7-ar/thumb/softfp\libc.a
START GROUP
LOAD d:/rt-threadstudio/repo/extract/toolchain_support_packages/arm/gnu_tools_for_arm_embedded_processors/5.4.1/bin/../lib/gcc/arm-none-eabi/5.4.1/armv7-ar/thumb/softfp\libgcc.a
LOAD d:/rt-threadstudio/repo/extract/toolchain_support_packages/arm/gnu_tools_for_arm_embedded_processors/5.4.1/bin/../lib/gcc/arm-none-eabi/5.4.1/../../../../arm-none-eabi/lib/armv7-ar/thumb/softfp\libc.a
END GROUP
LOAD d:/rt-threadstudio/repo/extract/toolchain_support_packages/arm/gnu_tools_for_arm_embedded_processors/5.4.1/bin/../lib/gcc/arm-none-eabi/5.4.1/armv7-ar/thumb/softfp/crtend.o
LOAD d:/rt-threadstudio/repo/extract/toolchain_support_packages/arm/gnu_tools_for_arm_embedded_processors/5.4.1/bin/../lib/gcc/arm-none-eabi/5.4.1/armv7-ar/thumb/softfp/crtn.o

.text           0x00000000    0x25934
                0x00000000                __text_start = .
 *(.vectors)
 .vectors       0x00000000       0x20 ./rt-thread/libcpu/arm/am335x/vector_gcc.o
                0x00000000                system_vectors
 *(.text)
 .text          0x00000020      0x1f4 ./rt-thread/src/clock.o
                0x00000020                rt_tick_get
                0x00000044                rt_tick_set
                0x00000080                rt_tick_increase
                0x0000012c                rt_tick_from_millisecond
                0x000001f0                rt_tick_get_millisecond
 .text          0x00000214      0x200 ./rt-thread/src/components.o
                0x00000284                rt_components_board_init
                0x000002d8                rt_components_init
                0x0000032c                entry
                0x00000344                main_thread_entry
                0x00000368                rt_application_init
                0x000003dc                rtthread_startup
 .text          0x00000414      0xa88 ./rt-thread/src/device.o
                0x000004ac                rt_device_register
                0x0000055c                rt_device_unregister
                0x0000060c                rt_device_find
                0x00000638                rt_device_create
                0x000006c0                rt_device_destroy
                0x00000774                rt_device_init
                0x00000838                rt_device_open
                0x00000a24                rt_device_close
                0x00000b30                rt_device_read
                0x00000c0c                rt_device_write
                0x00000ce8                rt_device_control
                0x00000d94                rt_device_set_rx_indicate
                0x00000e18                rt_device_set_tx_complete
 .text          0x00000e9c      0x4e8 ./rt-thread/src/idle.o
                0x00000f5c                rt_thread_idle_sethook
                0x00000ff0                rt_thread_idle_delhook
                0x00001088                rt_thread_defunct_enqueue
                0x000010bc                rt_thread_defunct_dequeue
                0x00001290                rt_thread_idle_init
                0x00001358                rt_thread_idle_gethandler
 .text          0x00001384     0x3ea4 ./rt-thread/src/ipc.o
                0x00001650                rt_sem_init
                0x00001700                rt_sem_detach
                0x000017c0                rt_sem_create
                0x000018a8                rt_sem_delete
                0x000019b4                rt_sem_take
                0x00001c00                rt_sem_trytake
                0x00001c2c                rt_sem_release
                0x00001d60                rt_sem_control
                0x00001e34                rt_mutex_init
                0x00001ee0                rt_mutex_detach
                0x00001fa0                rt_mutex_create
                0x00002080                rt_mutex_delete
                0x0000218c                rt_mutex_take
                0x000024c8                rt_mutex_trytake
                0x000024f4                rt_mutex_release
                0x000027e0                rt_mutex_control
                0x0000285c                rt_event_init
                0x000028e4                rt_event_detach
                0x000029a4                rt_event_create
                0x00002a60                rt_event_delete
                0x00002b6c                rt_event_send
                0x00002dbc                rt_event_recv
                0x0000315c                rt_event_control
                0x00003224                rt_mb_init
                0x000032f0                rt_mb_detach
                0x000033c0                rt_mb_create
                0x000034fc                rt_mb_delete
                0x00003628                rt_mb_send_wait
                0x000039c8                rt_mb_send
                0x000039fc                rt_mb_urgent
                0x00003ba4                rt_mb_recv
                0x00003f80                rt_mb_control
                0x00004070                rt_mq_init
                0x000041dc                rt_mq_detach
                0x000042ac                rt_mq_create
                0x0000447c                rt_mq_delete
                0x000045a8                rt_mq_send_wait
                0x000049ec                rt_mq_send
                0x00004a28                rt_mq_urgent
                0x00004c7c                rt_mq_recv
                0x000050e4                rt_mq_control
 .text          0x00005228      0x17c ./rt-thread/src/irq.o
                0x00005228                rt_interrupt_enter_sethook
                0x00005258                rt_interrupt_leave_sethook
                0x00005288                rt_interrupt_enter
                0x000052f8                rt_interrupt_leave
                0x00005368                rt_interrupt_get_nest
 .text          0x000053a4     0x1d9c ./rt-thread/src/kservice.o
                0x000053a4                rt_get_errno
                0x00005408                rt_set_errno
                0x00005478                _rt_errno
                0x000054d4                rt_memset
                0x00005634                rt_memcpy
                0x000057cc                rt_memmove
                0x000058c8                rt_memcmp
                0x00005970                rt_strstr
                0x00005a1c                rt_strcasecmp
                0x00005ad8                rt_strncpy
                0x00005b98                rt_strncmp
                0x00005c28                rt_strcmp
                0x00005ca8                rt_strlen
                0x00005cfc                rt_strnlen
                0x00005d70                rt_strdup
                0x00005dd4                rt_show_version
                0x000062b4                rt_vsnprintf
                0x00006bac                rt_snprintf
                0x00006bfc                rt_vsprintf
                0x00006c38                rt_sprintf
                0x00006c80                rt_console_get_device
                0x00006ca4                rt_console_set_device
                0x00006d48                rt_hw_console_output
                0x00006d68                rt_kputs
                0x00006ddc                rt_kprintf
                0x00006e80                rt_malloc_align
                0x00006f78                rt_free_align
                0x00006fac                __rt_ffs
                0x00007084                rt_assert_set_hook
                0x000070b4                rt_assert_handler
 .text          0x00007140     0x1058 ./rt-thread/src/mem.o
                0x00007140                rt_malloc_sethook
                0x00007170                rt_free_sethook
                0x000073a4                rt_system_heap_init
                0x000075a0                rt_malloc
                0x00007aa0                rt_realloc
                0x00007da8                rt_calloc
                0x00007e0c                rt_free
                0x000080ac                rt_memory_info
                0x00008134                list_mem
 .text          0x00008198      0x9ec ./rt-thread/src/object.o
                0x00008258                rt_object_attach_sethook
                0x00008288                rt_object_detach_sethook
                0x000082b8                rt_object_trytake_sethook
                0x000082e8                rt_object_take_sethook
                0x00008318                rt_object_put_sethook
                0x00008348                rt_object_get_information
                0x000083c8                rt_object_get_length
                0x0000847c                rt_object_get_pointers
                0x00008588                rt_object_init
                0x000086e4                rt_object_detach
                0x00008778                rt_object_allocate
                0x000088e0                rt_object_delete
                0x000089a8                rt_object_is_systemobject
                0x00008a08                rt_object_get_type
                0x00008a58                rt_object_find
 .text          0x00008b84      0x93c ./rt-thread/src/scheduler.o
                0x00008cbc                rt_scheduler_sethook
                0x00008cec                rt_scheduler_switch_sethook
                0x00008e78                rt_system_scheduler_init
                0x00008ed4                rt_system_scheduler_start
                0x00008f24                rt_schedule
                0x00009200                rt_schedule_insert_thread
                0x0000930c                rt_schedule_remove_thread
                0x000093c0                rt_enter_critical
                0x00009408                rt_exit_critical
                0x00009498                rt_critical_level
 .text          0x000094c0     0x1018 ./rt-thread/src/thread.o
                0x00009560                rt_thread_suspend_sethook
                0x00009590                rt_thread_resume_sethook
                0x000095c0                rt_thread_inited_sethook
                0x00009870                rt_thread_init
                0x00009928                rt_thread_self
                0x0000994c                rt_thread_startup
                0x00009a40                rt_thread_detach
                0x00009b70                rt_thread_create
                0x00009c1c                rt_thread_delete
                0x00009d2c                rt_thread_yield
                0x00009d8c                rt_thread_sleep
                0x00009e64                rt_thread_delay
                0x00009e8c                rt_thread_delay_until
                0x00009ff4                rt_thread_mdelay
                0x0000a028                rt_thread_control
                0x0000a1a8                rt_thread_suspend
                0x0000a2e8                rt_thread_resume
                0x0000a3d4                rt_thread_timeout
                0x0000a4ac                rt_thread_find
 .text          0x0000a4d8      0xd98 ./rt-thread/src/timer.o
                0x0000a610                rt_timer_enter_sethook
                0x0000a640                rt_timer_exit_sethook
                0x0000a7f8                rt_timer_init
                0x0000a874                rt_timer_detach
                0x0000a954                rt_timer_create
                0x0000a9c0                rt_timer_delete
                0x0000aaa0                rt_timer_start
                0x0000adf0                rt_timer_stop
                0x0000aedc                rt_timer_control
                0x0000b024                rt_timer_check
                0x0000b1e0                rt_timer_next_timeout_tick
                0x0000b200                rt_system_timer_init
                0x0000b258                rt_system_timer_thread_init
 .text          0x0000b270      0x108 ./rt-thread/libcpu/arm/am335x/context_gcc.o
                0x0000b270                rt_hw_interrupt_disable
                0x0000b27c                rt_hw_interrupt_enable
                0x0000b284                rt_hw_context_switch
                0x0000b2b0                rt_hw_context_switch_to
                0x0000b2c0                rt_hw_context_switch_interrupt
                0x0000b2ec                IRQ_Handler
                0x0000b314                rt_hw_context_switch_interrupt_do
 .text          0x0000b378       0x30 ./rt-thread/libcpu/arm/am335x/cpu.o
                0x0000b378                rt_hw_cpu_reset
                0x0000b390                rt_hw_cpu_shutdown
 .text          0x0000b3a8      0x1e0 ./rt-thread/libcpu/arm/am335x/interrupt.o
                0x0000b3d8                rt_hw_interrupt_init
                0x0000b494                rt_hw_interrupt_mask
                0x0000b4bc                rt_hw_interrupt_umask
                0x0000b4e8                rt_hw_interrupt_install
 .text          0x0000b588      0x298 ./rt-thread/libcpu/arm/am335x/stack.o
                0x0000b588                rt_hw_stack_init
 .text          0x0000b820      0x370 ./rt-thread/libcpu/arm/am335x/start_gcc.o
                0x0000b820                _reset
                0x0000b878                data_init
                0x0000b8e0                _coreEnableRamEcc_
                0x0000b8f8                _coreDisableRamEcc_
                0x0000b910                _coreEnableFlashEcc_
                0x0000b92c                _coreDisableFlashEcc_
                0x0000b944                _coreGetDataFault_
                0x0000b94c                _coreClearDataFault_
                0x0000b960                _coreGetInstructionFault_
                0x0000b968                _coreClearInstructionFault_
                0x0000b97c                _coreGetDataFaultAddress_
                0x0000b984                _coreClearDataFaultAddress_
                0x0000b998                _coreGetInstructionFaultAddress_
                0x0000b9a0                _coreClearInstructionFaultAddress_
                0x0000b9b4                _coreGetAuxiliaryDataFault_
                0x0000b9bc                _coreClearAuxiliaryDataFault_
                0x0000b9d0                _coreGetAuxiliaryInstructionFault_
                0x0000b9d8                _coreClearAuxiliaryInstructionFault_
                0x0000b9ec                _esmCcmErrorsClear_
                0x0000ba74                _errata_CORTEXR4_57_
                0x0000ba8c                _errata_CORTEXR4_66_
                0x0000baa4                turnon_VFP
                0x0000babc                vector_svc
                0x0000bae8                vector_pabort
                0x0000bb14                vector_dabort
                0x0000bb40                vector_resv
 .text          0x0000bb90      0x2c4 ./rt-thread/libcpu/arm/am335x/trap.o
                0x0000bb90                rt_hw_show_register
                0x0000bca0                rt_hw_trap_udef
                0x0000bcfc                rt_hw_trap_svc
                0x0000bd34                rt_hw_trap_pabt
                0x0000bd6c                rt_hw_trap_dabt
                0x0000bda4                rt_hw_trap_resv
                0x0000bddc                rt_hw_trap_irq
                0x0000be38                rt_hw_trap_fiq
 .text          0x0000be54       0x58 ./rt-thread/components/libc/compilers/gcc/newlib/libc.o
                0x0000be54                libc_system_init
 .text          0x0000beac      0x23c ./rt-thread/components/libc/compilers/gcc/newlib/stdio.o
                0x0000beac                libc_stdio_set_console
                0x0000c0a4                libc_stdio_get_console
 .text          0x0000c0e8      0x62c ./rt-thread/components/libc/compilers/gcc/newlib/syscalls.o
                0x0000c0e8                _malloc_r
                0x0000c130                _realloc_r
                0x0000c180                _calloc_r
                0x0000c1d0                _free_r
                0x0000c1f8                __libc_init_array
                0x0000c210                __errno
                0x0000c228                _getpid_r
                0x0000c24c                _close_r
                0x0000c278                _execve_r
                0x0000c2b4                _fcntl_r
                0x0000c2f0                _fork_r
                0x0000c320                _fstat_r
                0x0000c358                _isatty_r
                0x0000c3a0                _kill_r
                0x0000c3d8                _link_r
                0x0000c410                _lseek_r
                0x0000c450                _mkdir_r
                0x0000c48c                _open_r
                0x0000c4cc                _read_r
                0x0000c554                _rename_r
                0x0000c58c                _stat_r
                0x0000c5c4                _unlink_r
                0x0000c5f0                _wait_r
                0x0000c624                _write_r
                0x0000c6ac                _exit
                0x0000c6c8                umask
                0x0000c6ec                flock
 .text          0x0000c714       0xd4 ./rt-thread/components/libc/compilers/common/stdlib.o
                0x0000c714                __rt_libc_exit
                0x0000c784                system
 .text          0x0000c7e8     0x1578 ./rt-thread/components/finsh/cmd.o
                0x0000c888                hello
                0x0000c8c8                version
                0x0000cb1c                list_thread
                0x0000ce68                list_sem
                0x0000d04c                list_event
                0x0000d210                list_mutex
                0x0000d38c                list_mailbox
                0x0000d590                list_msgqueue
                0x0000d774                list_mempool
                0x0000d994                list_timer
                0x0000db30                list_device
                0x0000dcb0                list
 .text          0x0000dd60      0xcd0 ./rt-thread/components/finsh/msh.o
                0x0000dd60                msh_help
                0x0000ddf4                cmd_ps
                0x0000de1c                cmd_free
                0x0000e31c                msh_exec
                0x0000e4c8                msh_auto_complete_path
                0x0000e89c                msh_auto_complete
 .text          0x0000ea30     0x14d8 ./rt-thread/components/finsh/msh_file.o
                0x0000eb60                msh_exec_script
 .text          0x0000ff08     0x1498 ./rt-thread/components/finsh/shell.o
                0x0000ff08                finsh_set_prompt
                0x0000ffc0                finsh_get_prompt
                0x000100e0                finsh_get_prompt_mode
                0x00010134                finsh_set_prompt_mode
                0x000101a4                finsh_getchar
                0x0001022c                finsh_set_echo
                0x0001029c                finsh_get_echo
                0x000105fc                finsh_thread_entry
                0x00011264                finsh_system_function_init
                0x000112a8                finsh_system_init
 .text          0x000113a0      0x394 ./rt-thread/components/drivers/src/completion.o
                0x00011474                rt_completion_init
                0x000114e0                rt_completion_wait
                0x00011680                rt_completion_done
 .text          0x00011734      0xdbc ./rt-thread/components/drivers/src/dataqueue.o
                0x00011808                rt_data_queue_init
                0x00011944                rt_data_queue_push
                0x00011c80                rt_data_queue_pop
                0x00012060                rt_data_queue_peek
                0x0001216c                rt_data_queue_reset
                0x000122f8                rt_data_queue_deinit
                0x000123a8                rt_data_queue_len
 .text          0x000124f0      0x448 ./rt-thread/components/drivers/src/waitqueue.o
                0x00012628                rt_wqueue_add
                0x00012674                rt_wqueue_remove
                0x000126b0                __wqueue_default_wake
                0x000126d8                rt_wqueue_wakeup
                0x000127bc                rt_wqueue_wait
 .text          0x00012938      0xcc4 ./rt-thread/components/drivers/src/workqueue.o
                0x00012fe0                rt_workqueue_create
                0x000130dc                rt_workqueue_destroy
                0x00013150                rt_workqueue_dowork
                0x000131cc                rt_workqueue_submit_work
                0x0001324c                rt_workqueue_critical_work
                0x00013330                rt_workqueue_cancel_work
                0x000133a8                rt_workqueue_cancel_work_sync
                0x0001344c                rt_workqueue_cancel_all_work
                0x00013504                rt_work_submit
                0x00013544                rt_work_cancel
 .text          0x000135fc     0x2630 ./rt-thread/components/drivers/serial/serial.o
                0x000156f8                rt_hw_serial_register
                0x0001580c                rt_hw_serial_isr
 .text          0x00015c2c      0xe4c ./rt-thread/components/dfs/src/dfs.o
                0x00015c2c                dfs_init
                0x00015d20                dfs_lock
                0x00015d88                dfs_unlock
                0x00015fb0                fd_new
                0x0001606c                fd_get
                0x00016150                fd_put
                0x00016240                fd_is_open
                0x000163d4                dfs_subdir
                0x00016464                dfs_normalize_path
                0x00016830                dfs_fdtable_get
                0x0001685c                list_fd
 .text          0x00016a78     0x1474 ./rt-thread/components/dfs/src/dfs_file.o
                0x00016a78                dfs_file_open
                0x00016cb8                dfs_file_close
                0x00016d50                dfs_file_ioctl
                0x00016e54                dfs_file_read
                0x00016ef4                dfs_file_getdents
                0x00016f78                dfs_file_unlink
                0x000170d8                dfs_file_write
                0x0001714c                dfs_file_flush
                0x000171b0                dfs_file_lseek
                0x00017238                dfs_file_stat
                0x00017430                dfs_file_rename
                0x000175ac                dfs_file_ftruncate
                0x0001765c                ls
                0x00017820                rm
                0x00017860                cat
                0x00017cd0                copy
 .text          0x00017eec      0xf44 ./rt-thread/components/dfs/src/dfs_fs.o
                0x00017eec                dfs_register
                0x00018024                dfs_filesystem_lookup
                0x0001817c                dfs_filesystem_get_mounted_path
                0x00018214                dfs_filesystem_get_partition
                0x0001846c                dfs_mount
                0x00018818                dfs_unmount
                0x0001898c                dfs_mkfs
                0x00018b34                dfs_statfs
                0x00018ba4                mkfs
                0x00018bd0                df
 .text          0x00018e30      0xe08 ./rt-thread/components/dfs/src/dfs_posix.o
                0x00018e30                open
                0x00018ed4                close
                0x00018f54                read
                0x00018fe4                write
                0x00019074                lseek
                0x00019190                rename
                0x000191e0                unlink
                0x00019228                stat
                0x00019278                fstat
                0x00019340                fsync
                0x0001939c                fcntl
                0x00019448                ioctl
                0x000194a0                ftruncate
                0x0001954c                statfs
                0x0001959c                mkdir
                0x0001964c                rmdir
                0x00019694                opendir
                0x0001977c                readdir
                0x000198a8                telldir
                0x00019924                seekdir
                0x000199a8                rewinddir
                0x00019a28                closedir
                0x00019ab8                chdir
                0x00019bb0                access
                0x00019bf8                getcwd
 .text          0x00019c38      0x93c ./rt-thread/components/dfs/filesystems/devfs/devfs.o
                0x00019c38                dfs_device_fs_mount
                0x00019c64                dfs_device_fs_ioctl
                0x00019d08                dfs_device_fs_read
                0x00019dbc                dfs_device_fs_write
                0x00019e70                dfs_device_fs_close
                0x00019f60                dfs_device_fs_open
                0x0001a210                dfs_device_fs_stat
                0x0001a3a4                dfs_device_fs_getdents
                0x0001a554                devfs_init
 .text          0x0001a574       0x8c ./drivers/board.o
                0x0001a574                rt_timer_handler
                0x0001a5a8                rt_hw_board_init
 .text          0x0001a600      0x430 ./drivers/drv_uart.o
                0x0001a934                rt_hw_uart_init
 .text          0x0001aa30       0x20 ./applications/main.o
                0x0001aa30                main
 .text          0x0001aa50      0x984 ./HALCoGen/source/rti.o
                0x0001aa50                rtiInit
                0x0001abc0                rtiStartCounter
                0x0001ac0c                rtiStopCounter
                0x0001ac5c                rtiResetCounter
                0x0001ad00                rtiSetPeriod
                0x0001ad44                rtiGetPeriod
                0x0001ad88                rtiGetCurrentTick
                0x0001ae20                dwdInit
                0x0001ae64                dwwdInit
                0x0001aed4                dwwdGetCurrentDownCounter
                0x0001aef8                dwdCounterEnable
                0x0001af24                dwdSetPreload
                0x0001af58                dwdReset
                0x0001af90                dwdGenerateSysReset
                0x0001afc8                IsdwdKeySequenceCorrect
                0x0001b014                dwdGetStatus
                0x0001b060                dwdClearFlag
                0x0001b088                dwdGetViolationStatus
                0x0001b140                rtiEnableNotification
                0x0001b180                rtiDisableNotification
                0x0001b1b0                rtiGetConfigValue
 .text          0x0001b3d4      0x1e8 ./HALCoGen/source/sys_startup.o
                0x0001b3d4                memoryInit
                0x0001b430                _c_int00
 .text          0x0001b5bc      0x690 ./HALCoGen/source/sys_vim.o
                0x0001b5bc                vimInit
                0x0001b654                vimChannelMap
                0x0001b740                vimEnableInterrupt
                0x0001b920                vimDisableInterrupt
                0x0001b9bc                vimGetConfigValue
 .text          0x0001bc4c      0xb84 ./HALCoGen/source/system.o
                0x0001bc4c                setupPLL
                0x0001bca4                trimLPO
                0x0001bd18                setupFlash
                0x0001bd84                periphInit
                0x0001be04                mapClocks
                0x0001bf18                systemInit
                0x0001bf90                systemPowerDown
                0x0001bfd8                systemGetConfigValue
                0x0001c450                tcmflashGetConfigValue
                0x0001c650                sramGetConfigValue
 .text          0x0001c7d0       0xec d:/rt-threadstudio/repo/extract/toolchain_support_packages/arm/gnu_tools_for_arm_embedded_processors/5.4.1/bin/../lib/gcc/arm-none-eabi/5.4.1/../../../../arm-none-eabi/lib/armv7-ar/thumb/softfp\libc.a(lib_a-memcpy.o)
                0x0001c7d0                memcpy
 .text          0x0001c8bc      0x1bc d:/rt-threadstudio/repo/extract/toolchain_support_packages/arm/gnu_tools_for_arm_embedded_processors/5.4.1/bin/../lib/gcc/arm-none-eabi/5.4.1/../../../../arm-none-eabi/lib/armv7-ar/thumb/softfp\libc.a(lib_a-strcmp.o)
                0x0001c8bc                strcmp
 .text          0x0001ca78      0x278 d:/rt-threadstudio/repo/extract/toolchain_support_packages/arm/gnu_tools_for_arm_embedded_processors/5.4.1/bin/../lib/gcc/arm-none-eabi/5.4.1/armv7-ar/thumb/softfp\libgcc.a(_udivsi3.o)
                0x0001ca78                __aeabi_uidiv
                0x0001ca78                __udivsi3
                0x0001ccd4                __aeabi_uidivmod
 .text          0x0001ccf0      0x2b0 d:/rt-threadstudio/repo/extract/toolchain_support_packages/arm/gnu_tools_for_arm_embedded_processors/5.4.1/bin/../lib/gcc/arm-none-eabi/5.4.1/armv7-ar/thumb/softfp\libgcc.a(_divsi3.o)
                0x0001ccf0                __divsi3
                0x0001ccf0                __aeabi_idiv
                0x0001cf84                __aeabi_idivmod
 .text          0x0001cfa0        0x4 d:/rt-threadstudio/repo/extract/toolchain_support_packages/arm/gnu_tools_for_arm_embedded_processors/5.4.1/bin/../lib/gcc/arm-none-eabi/5.4.1/armv7-ar/thumb/softfp\libgcc.a(_dvmd_tls.o)
                0x0001cfa0                __aeabi_idiv0
                0x0001cfa0                __aeabi_ldiv0
 .text          0x0001cfa4       0x30 d:/rt-threadstudio/repo/extract/toolchain_support_packages/arm/gnu_tools_for_arm_embedded_processors/5.4.1/bin/../lib/gcc/arm-none-eabi/5.4.1/armv7-ar/thumb/softfp\libgcc.a(_aeabi_uldivmod.o)
                0x0001cfa4                __aeabi_uldivmod
 .text          0x0001cfd4      0x114 d:/rt-threadstudio/repo/extract/toolchain_support_packages/arm/gnu_tools_for_arm_embedded_processors/5.4.1/bin/../lib/gcc/arm-none-eabi/5.4.1/armv7-ar/thumb/softfp\libgcc.a(_udivmoddi4.o)
                0x0001cfd4                __udivmoddi4
 *(.text.*)
 .text.atoi     0x0001d0e8        0x8 d:/rt-threadstudio/repo/extract/toolchain_support_packages/arm/gnu_tools_for_arm_embedded_processors/5.4.1/bin/../lib/gcc/arm-none-eabi/5.4.1/../../../../arm-none-eabi/lib/armv7-ar/thumb/softfp\libc.a(lib_a-atoi.o)
                0x0001d0e8                atoi
 .text._fclose_r
                0x0001d0f0       0x84 d:/rt-threadstudio/repo/extract/toolchain_support_packages/arm/gnu_tools_for_arm_embedded_processors/5.4.1/bin/../lib/gcc/arm-none-eabi/5.4.1/../../../../arm-none-eabi/lib/armv7-ar/thumb/softfp\libc.a(lib_a-fclose.o)
                0x0001d0f0                _fclose_r
 .text.fclose   0x0001d174       0x10 d:/rt-threadstudio/repo/extract/toolchain_support_packages/arm/gnu_tools_for_arm_embedded_processors/5.4.1/bin/../lib/gcc/arm-none-eabi/5.4.1/../../../../arm-none-eabi/lib/armv7-ar/thumb/softfp\libc.a(lib_a-fclose.o)
                0x0001d174                fclose
 .text.__sflush_r
                0x0001d184      0x150 d:/rt-threadstudio/repo/extract/toolchain_support_packages/arm/gnu_tools_for_arm_embedded_processors/5.4.1/bin/../lib/gcc/arm-none-eabi/5.4.1/../../../../arm-none-eabi/lib/armv7-ar/thumb/softfp\libc.a(lib_a-fflush.o)
                0x0001d184                __sflush_r
 .text._fflush_r
                0x0001d2d4       0x2c d:/rt-threadstudio/repo/extract/toolchain_support_packages/arm/gnu_tools_for_arm_embedded_processors/5.4.1/bin/../lib/gcc/arm-none-eabi/5.4.1/../../../../arm-none-eabi/lib/armv7-ar/thumb/softfp\libc.a(lib_a-fflush.o)
                0x0001d2d4                _fflush_r
 .text.fflush   0x0001d300       0x28 d:/rt-threadstudio/repo/extract/toolchain_support_packages/arm/gnu_tools_for_arm_embedded_processors/5.4.1/bin/../lib/gcc/arm-none-eabi/5.4.1/../../../../arm-none-eabi/lib/armv7-ar/thumb/softfp\libc.a(lib_a-fflush.o)
                0x0001d300                fflush
 .text.fileno   0x0001d328       0x34 d:/rt-threadstudio/repo/extract/toolchain_support_packages/arm/gnu_tools_for_arm_embedded_processors/5.4.1/bin/../lib/gcc/arm-none-eabi/5.4.1/../../../../arm-none-eabi/lib/armv7-ar/thumb/softfp\libc.a(lib_a-fileno.o)
                0x0001d328                fileno
 .text._cleanup_r
                0x0001d35c        0xc d:/rt-threadstudio/repo/extract/toolchain_support_packages/arm/gnu_tools_for_arm_embedded_processors/5.4.1/bin/../lib/gcc/arm-none-eabi/5.4.1/../../../../arm-none-eabi/lib/armv7-ar/thumb/softfp\libc.a(lib_a-findfp.o)
                0x0001d35c                _cleanup_r
 .text.__sinit.part.1
                0x0001d368      0x100 d:/rt-threadstudio/repo/extract/toolchain_support_packages/arm/gnu_tools_for_arm_embedded_processors/5.4.1/bin/../lib/gcc/arm-none-eabi/5.4.1/../../../../arm-none-eabi/lib/armv7-ar/thumb/softfp\libc.a(lib_a-findfp.o)
 .text.__sfmoreglue
                0x0001d468       0x30 d:/rt-threadstudio/repo/extract/toolchain_support_packages/arm/gnu_tools_for_arm_embedded_processors/5.4.1/bin/../lib/gcc/arm-none-eabi/5.4.1/../../../../arm-none-eabi/lib/armv7-ar/thumb/softfp\libc.a(lib_a-findfp.o)
                0x0001d468                __sfmoreglue
 .text.__sfp    0x0001d498       0x88 d:/rt-threadstudio/repo/extract/toolchain_support_packages/arm/gnu_tools_for_arm_embedded_processors/5.4.1/bin/../lib/gcc/arm-none-eabi/5.4.1/../../../../arm-none-eabi/lib/armv7-ar/thumb/softfp\libc.a(lib_a-findfp.o)
                0x0001d498                __sfp
 .text.__sinit  0x0001d520        0xc d:/rt-threadstudio/repo/extract/toolchain_support_packages/arm/gnu_tools_for_arm_embedded_processors/5.4.1/bin/../lib/gcc/arm-none-eabi/5.4.1/../../../../arm-none-eabi/lib/armv7-ar/thumb/softfp\libc.a(lib_a-findfp.o)
                0x0001d520                __sinit
 .text.__sfp_lock_acquire
                0x0001d52c        0x4 d:/rt-threadstudio/repo/extract/toolchain_support_packages/arm/gnu_tools_for_arm_embedded_processors/5.4.1/bin/../lib/gcc/arm-none-eabi/5.4.1/../../../../arm-none-eabi/lib/armv7-ar/thumb/softfp\libc.a(lib_a-findfp.o)
                0x0001d52c                __sfp_lock_acquire
 .text.__sfp_lock_release
                0x0001d530        0x4 d:/rt-threadstudio/repo/extract/toolchain_support_packages/arm/gnu_tools_for_arm_embedded_processors/5.4.1/bin/../lib/gcc/arm-none-eabi/5.4.1/../../../../arm-none-eabi/lib/armv7-ar/thumb/softfp\libc.a(lib_a-findfp.o)
                0x0001d530                __sfp_lock_release
 .text._fopen_r
                0x0001d534       0x94 d:/rt-threadstudio/repo/extract/toolchain_support_packages/arm/gnu_tools_for_arm_embedded_processors/5.4.1/bin/../lib/gcc/arm-none-eabi/5.4.1/../../../../arm-none-eabi/lib/armv7-ar/thumb/softfp\libc.a(lib_a-fopen.o)
                0x0001d534                _fopen_r
 .text.fopen    0x0001d5c8       0x14 d:/rt-threadstudio/repo/extract/toolchain_support_packages/arm/gnu_tools_for_arm_embedded_processors/5.4.1/bin/../lib/gcc/arm-none-eabi/5.4.1/../../../../arm-none-eabi/lib/armv7-ar/thumb/softfp\libc.a(lib_a-fopen.o)
                0x0001d5c8                fopen
 .text._fseek_r
                0x0001d5dc        0x4 d:/rt-threadstudio/repo/extract/toolchain_support_packages/arm/gnu_tools_for_arm_embedded_processors/5.4.1/bin/../lib/gcc/arm-none-eabi/5.4.1/../../../../arm-none-eabi/lib/armv7-ar/thumb/softfp\libc.a(lib_a-fseek.o)
                0x0001d5dc                _fseek_r
 .text._fseeko_r
                0x0001d5e0      0x2d4 d:/rt-threadstudio/repo/extract/toolchain_support_packages/arm/gnu_tools_for_arm_embedded_processors/5.4.1/bin/../lib/gcc/arm-none-eabi/5.4.1/../../../../arm-none-eabi/lib/armv7-ar/thumb/softfp\libc.a(lib_a-fseeko.o)
                0x0001d5e0                _fseeko_r
 .text._fwalk   0x0001d8b4       0x48 d:/rt-threadstudio/repo/extract/toolchain_support_packages/arm/gnu_tools_for_arm_embedded_processors/5.4.1/bin/../lib/gcc/arm-none-eabi/5.4.1/../../../../arm-none-eabi/lib/armv7-ar/thumb/softfp\libc.a(lib_a-fwalk.o)
                0x0001d8b4                _fwalk
 .text._fwalk_reent
                0x0001d8fc       0x50 d:/rt-threadstudio/repo/extract/toolchain_support_packages/arm/gnu_tools_for_arm_embedded_processors/5.4.1/bin/../lib/gcc/arm-none-eabi/5.4.1/../../../../arm-none-eabi/lib/armv7-ar/thumb/softfp\libc.a(lib_a-fwalk.o)
                0x0001d8fc                _fwalk_reent
 .text.getc     0x0001d94c       0x3c d:/rt-threadstudio/repo/extract/toolchain_support_packages/arm/gnu_tools_for_arm_embedded_processors/5.4.1/bin/../lib/gcc/arm-none-eabi/5.4.1/../../../../arm-none-eabi/lib/armv7-ar/thumb/softfp\libc.a(lib_a-getc.o)
                0x0001d94c                getc
 .text.__swhatbuf_r
                0x0001d988       0x60 d:/rt-threadstudio/repo/extract/toolchain_support_packages/arm/gnu_tools_for_arm_embedded_processors/5.4.1/bin/../lib/gcc/arm-none-eabi/5.4.1/../../../../arm-none-eabi/lib/armv7-ar/thumb/softfp\libc.a(lib_a-makebuf.o)
                0x0001d988                __swhatbuf_r
 .text.__smakebuf_r
                0x0001d9e8       0x90 d:/rt-threadstudio/repo/extract/toolchain_support_packages/arm/gnu_tools_for_arm_embedded_processors/5.4.1/bin/../lib/gcc/arm-none-eabi/5.4.1/../../../../arm-none-eabi/lib/armv7-ar/thumb/softfp\libc.a(lib_a-makebuf.o)
                0x0001d9e8                __smakebuf_r
 .text.memcmp   0x0001da78       0x60 d:/rt-threadstudio/repo/extract/toolchain_support_packages/arm/gnu_tools_for_arm_embedded_processors/5.4.1/bin/../lib/gcc/arm-none-eabi/5.4.1/../../../../arm-none-eabi/lib/armv7-ar/thumb/softfp\libc.a(lib_a-memcmp.o)
                0x0001da78                memcmp
 .text.memset   0x0001dad8       0xa4 d:/rt-threadstudio/repo/extract/toolchain_support_packages/arm/gnu_tools_for_arm_embedded_processors/5.4.1/bin/../lib/gcc/arm-none-eabi/5.4.1/../../../../arm-none-eabi/lib/armv7-ar/thumb/softfp\libc.a(lib_a-memset.o)
                0x0001dad8                memset
 .text.putenv   0x0001db7c       0x10 d:/rt-threadstudio/repo/extract/toolchain_support_packages/arm/gnu_tools_for_arm_embedded_processors/5.4.1/bin/../lib/gcc/arm-none-eabi/5.4.1/../../../../arm-none-eabi/lib/armv7-ar/thumb/softfp\libc.a(lib_a-putenv.o)
                0x0001db7c                putenv
 .text._putenv_r
                0x0001db8c       0x44 d:/rt-threadstudio/repo/extract/toolchain_support_packages/arm/gnu_tools_for_arm_embedded_processors/5.4.1/bin/../lib/gcc/arm-none-eabi/5.4.1/../../../../arm-none-eabi/lib/armv7-ar/thumb/softfp\libc.a(lib_a-putenv_r.o)
                0x0001db8c                _putenv_r
 .text._puts_r  0x0001dbd0       0x6c d:/rt-threadstudio/repo/extract/toolchain_support_packages/arm/gnu_tools_for_arm_embedded_processors/5.4.1/bin/../lib/gcc/arm-none-eabi/5.4.1/../../../../arm-none-eabi/lib/armv7-ar/thumb/softfp\libc.a(lib_a-puts.o)
                0x0001dbd0                _puts_r
 .text.puts     0x0001dc3c       0x10 d:/rt-threadstudio/repo/extract/toolchain_support_packages/arm/gnu_tools_for_arm_embedded_processors/5.4.1/bin/../lib/gcc/arm-none-eabi/5.4.1/../../../../arm-none-eabi/lib/armv7-ar/thumb/softfp\libc.a(lib_a-puts.o)
                0x0001dc3c                puts
 .text.lflush   0x0001dc4c       0x14 d:/rt-threadstudio/repo/extract/toolchain_support_packages/arm/gnu_tools_for_arm_embedded_processors/5.4.1/bin/../lib/gcc/arm-none-eabi/5.4.1/../../../../arm-none-eabi/lib/armv7-ar/thumb/softfp\libc.a(lib_a-refill.o)
 .text.__srefill_r
                0x0001dc60      0x11c d:/rt-threadstudio/repo/extract/toolchain_support_packages/arm/gnu_tools_for_arm_embedded_processors/5.4.1/bin/../lib/gcc/arm-none-eabi/5.4.1/../../../../arm-none-eabi/lib/armv7-ar/thumb/softfp\libc.a(lib_a-refill.o)
                0x0001dc60                __srefill_r
 .text.__srget_r
                0x0001dd7c       0x34 d:/rt-threadstudio/repo/extract/toolchain_support_packages/arm/gnu_tools_for_arm_embedded_processors/5.4.1/bin/../lib/gcc/arm-none-eabi/5.4.1/../../../../arm-none-eabi/lib/armv7-ar/thumb/softfp\libc.a(lib_a-rget.o)
                0x0001dd7c                __srget_r
 .text._setenv_r
                0x0001ddb0      0x188 d:/rt-threadstudio/repo/extract/toolchain_support_packages/arm/gnu_tools_for_arm_embedded_processors/5.4.1/bin/../lib/gcc/arm-none-eabi/5.4.1/../../../../arm-none-eabi/lib/armv7-ar/thumb/softfp\libc.a(lib_a-setenv_r.o)
                0x0001ddb0                _setenv_r
 .text.setvbuf  0x0001df38      0x154 d:/rt-threadstudio/repo/extract/toolchain_support_packages/arm/gnu_tools_for_arm_embedded_processors/5.4.1/bin/../lib/gcc/arm-none-eabi/5.4.1/../../../../arm-none-eabi/lib/armv7-ar/thumb/softfp\libc.a(lib_a-setvbuf.o)
                0x0001df38                setvbuf
 .text.snprintf
                0x0001e08c       0x8c d:/rt-threadstudio/repo/extract/toolchain_support_packages/arm/gnu_tools_for_arm_embedded_processors/5.4.1/bin/../lib/gcc/arm-none-eabi/5.4.1/../../../../arm-none-eabi/lib/armv7-ar/thumb/softfp\libc.a(lib_a-snprintf.o)
                0x0001e08c                snprintf
 .text.__sread  0x0001e118       0x24 d:/rt-threadstudio/repo/extract/toolchain_support_packages/arm/gnu_tools_for_arm_embedded_processors/5.4.1/bin/../lib/gcc/arm-none-eabi/5.4.1/../../../../arm-none-eabi/lib/armv7-ar/thumb/softfp\libc.a(lib_a-stdio.o)
                0x0001e118                __sread
 .text.__swrite
                0x0001e13c       0x3c d:/rt-threadstudio/repo/extract/toolchain_support_packages/arm/gnu_tools_for_arm_embedded_processors/5.4.1/bin/../lib/gcc/arm-none-eabi/5.4.1/../../../../arm-none-eabi/lib/armv7-ar/thumb/softfp\libc.a(lib_a-stdio.o)
                0x0001e13c                __swrite
 .text.__sseek  0x0001e178       0x20 d:/rt-threadstudio/repo/extract/toolchain_support_packages/arm/gnu_tools_for_arm_embedded_processors/5.4.1/bin/../lib/gcc/arm-none-eabi/5.4.1/../../../../arm-none-eabi/lib/armv7-ar/thumb/softfp\libc.a(lib_a-stdio.o)
                0x0001e178                __sseek
 .text.__sclose
                0x0001e198        0x8 d:/rt-threadstudio/repo/extract/toolchain_support_packages/arm/gnu_tools_for_arm_embedded_processors/5.4.1/bin/../lib/gcc/arm-none-eabi/5.4.1/../../../../arm-none-eabi/lib/armv7-ar/thumb/softfp\libc.a(lib_a-stdio.o)
                0x0001e198                __sclose
 .text.strchr   0x0001e1a0       0xec d:/rt-threadstudio/repo/extract/toolchain_support_packages/arm/gnu_tools_for_arm_embedded_processors/5.4.1/bin/../lib/gcc/arm-none-eabi/5.4.1/../../../../arm-none-eabi/lib/armv7-ar/thumb/softfp\libc.a(lib_a-strchr.o)
                0x0001e1a0                strchr
 .text.strcpy   0x0001e28c       0xbc d:/rt-threadstudio/repo/extract/toolchain_support_packages/arm/gnu_tools_for_arm_embedded_processors/5.4.1/bin/../lib/gcc/arm-none-eabi/5.4.1/../../../../arm-none-eabi/lib/armv7-ar/thumb/softfp\libc.a(lib_a-strcpy.o)
                0x0001e28c                strcpy
 .text._strdup_r
                0x0001e348       0x28 d:/rt-threadstudio/repo/extract/toolchain_support_packages/arm/gnu_tools_for_arm_embedded_processors/5.4.1/bin/../lib/gcc/arm-none-eabi/5.4.1/../../../../arm-none-eabi/lib/armv7-ar/thumb/softfp\libc.a(lib_a-strdup_r.o)
                0x0001e348                _strdup_r
 .text.strlen   0x0001e370       0x5c d:/rt-threadstudio/repo/extract/toolchain_support_packages/arm/gnu_tools_for_arm_embedded_processors/5.4.1/bin/../lib/gcc/arm-none-eabi/5.4.1/../../../../arm-none-eabi/lib/armv7-ar/thumb/softfp\libc.a(lib_a-strlen-stub.o)
                0x0001e370                strlen
 .text.strncmp  0x0001e3cc       0xa0 d:/rt-threadstudio/repo/extract/toolchain_support_packages/arm/gnu_tools_for_arm_embedded_processors/5.4.1/bin/../lib/gcc/arm-none-eabi/5.4.1/../../../../arm-none-eabi/lib/armv7-ar/thumb/softfp\libc.a(lib_a-strncmp.o)
                0x0001e3cc                strncmp
 .text.strncpy  0x0001e46c       0x70 d:/rt-threadstudio/repo/extract/toolchain_support_packages/arm/gnu_tools_for_arm_embedded_processors/5.4.1/bin/../lib/gcc/arm-none-eabi/5.4.1/../../../../arm-none-eabi/lib/armv7-ar/thumb/softfp\libc.a(lib_a-strncpy.o)
                0x0001e46c                strncpy
 .text.strrchr  0x0001e4dc       0x24 d:/rt-threadstudio/repo/extract/toolchain_support_packages/arm/gnu_tools_for_arm_embedded_processors/5.4.1/bin/../lib/gcc/arm-none-eabi/5.4.1/../../../../arm-none-eabi/lib/armv7-ar/thumb/softfp\libc.a(lib_a-strrchr.o)
                0x0001e4dc                strrchr
 .text.critical_factorization
                0x0001e500       0xb8 d:/rt-threadstudio/repo/extract/toolchain_support_packages/arm/gnu_tools_for_arm_embedded_processors/5.4.1/bin/../lib/gcc/arm-none-eabi/5.4.1/../../../../arm-none-eabi/lib/armv7-ar/thumb/softfp\libc.a(lib_a-strstr.o)
 .text.two_way_long_needle
                0x0001e5b8      0x214 d:/rt-threadstudio/repo/extract/toolchain_support_packages/arm/gnu_tools_for_arm_embedded_processors/5.4.1/bin/../lib/gcc/arm-none-eabi/5.4.1/../../../../arm-none-eabi/lib/armv7-ar/thumb/softfp\libc.a(lib_a-strstr.o)
 .text.strstr   0x0001e7cc      0x220 d:/rt-threadstudio/repo/extract/toolchain_support_packages/arm/gnu_tools_for_arm_embedded_processors/5.4.1/bin/../lib/gcc/arm-none-eabi/5.4.1/../../../../arm-none-eabi/lib/armv7-ar/thumb/softfp\libc.a(lib_a-strstr.o)
                0x0001e7cc                strstr
 .text._strtol_l.isra.0
                0x0001e9ec      0x144 d:/rt-threadstudio/repo/extract/toolchain_support_packages/arm/gnu_tools_for_arm_embedded_processors/5.4.1/bin/../lib/gcc/arm-none-eabi/5.4.1/../../../../arm-none-eabi/lib/armv7-ar/thumb/softfp\libc.a(lib_a-strtol.o)
 .text.strtol   0x0001eb30       0x30 d:/rt-threadstudio/repo/extract/toolchain_support_packages/arm/gnu_tools_for_arm_embedded_processors/5.4.1/bin/../lib/gcc/arm-none-eabi/5.4.1/../../../../arm-none-eabi/lib/armv7-ar/thumb/softfp\libc.a(lib_a-strtol.o)
                0x0001eb30                strtol
 .text._svfprintf_r
                0x0001eb60     0x1770 d:/rt-threadstudio/repo/extract/toolchain_support_packages/arm/gnu_tools_for_arm_embedded_processors/5.4.1/bin/../lib/gcc/arm-none-eabi/5.4.1/../../../../arm-none-eabi/lib/armv7-ar/thumb/softfp\libc.a(lib_a-svfprintf.o)
                0x0001eb60                _svfprintf_r
 .text.quorem   0x000202d0      0x140 d:/rt-threadstudio/repo/extract/toolchain_support_packages/arm/gnu_tools_for_arm_embedded_processors/5.4.1/bin/../lib/gcc/arm-none-eabi/5.4.1/../../../../arm-none-eabi/lib/armv7-ar/thumb/softfp\libc.a(lib_a-dtoa.o)
 .text._dtoa_r  0x00020410      0xd1c d:/rt-threadstudio/repo/extract/toolchain_support_packages/arm/gnu_tools_for_arm_embedded_processors/5.4.1/bin/../lib/gcc/arm-none-eabi/5.4.1/../../../../arm-none-eabi/lib/armv7-ar/thumb/softfp\libc.a(lib_a-dtoa.o)
                0x00020410                _dtoa_r
 .text.__env_lock
                0x0002112c        0x4 d:/rt-threadstudio/repo/extract/toolchain_support_packages/arm/gnu_tools_for_arm_embedded_processors/5.4.1/bin/../lib/gcc/arm-none-eabi/5.4.1/../../../../arm-none-eabi/lib/armv7-ar/thumb/softfp\libc.a(lib_a-envlock.o)
                0x0002112c                __env_lock
 .text.__env_unlock
                0x00021130        0x4 d:/rt-threadstudio/repo/extract/toolchain_support_packages/arm/gnu_tools_for_arm_embedded_processors/5.4.1/bin/../lib/gcc/arm-none-eabi/5.4.1/../../../../arm-none-eabi/lib/armv7-ar/thumb/softfp\libc.a(lib_a-envlock.o)
                0x00021130                __env_unlock
 .text.__sflags
                0x00021134       0x78 d:/rt-threadstudio/repo/extract/toolchain_support_packages/arm/gnu_tools_for_arm_embedded_processors/5.4.1/bin/../lib/gcc/arm-none-eabi/5.4.1/../../../../arm-none-eabi/lib/armv7-ar/thumb/softfp\libc.a(lib_a-flags.o)
                0x00021134                __sflags
 .text.__sfvwrite_r
                0x000211ac      0x324 d:/rt-threadstudio/repo/extract/toolchain_support_packages/arm/gnu_tools_for_arm_embedded_processors/5.4.1/bin/../lib/gcc/arm-none-eabi/5.4.1/../../../../arm-none-eabi/lib/armv7-ar/thumb/softfp\libc.a(lib_a-fvwrite.o)
                0x000211ac                __sfvwrite_r
 .text._findenv_r
                0x000214d0       0x88 d:/rt-threadstudio/repo/extract/toolchain_support_packages/arm/gnu_tools_for_arm_embedded_processors/5.4.1/bin/../lib/gcc/arm-none-eabi/5.4.1/../../../../arm-none-eabi/lib/armv7-ar/thumb/softfp\libc.a(lib_a-getenv_r.o)
                0x000214d0                _findenv_r
 .text.__locale_ctype_ptr_l
                0x00021558        0x8 d:/rt-threadstudio/repo/extract/toolchain_support_packages/arm/gnu_tools_for_arm_embedded_processors/5.4.1/bin/../lib/gcc/arm-none-eabi/5.4.1/../../../../arm-none-eabi/lib/armv7-ar/thumb/softfp\libc.a(lib_a-locale.o)
                0x00021558                __locale_ctype_ptr_l
 .text._localeconv_r
                0x00021560       0x20 d:/rt-threadstudio/repo/extract/toolchain_support_packages/arm/gnu_tools_for_arm_embedded_processors/5.4.1/bin/../lib/gcc/arm-none-eabi/5.4.1/../../../../arm-none-eabi/lib/armv7-ar/thumb/softfp\libc.a(lib_a-localeconv.o)
                0x00021560                _localeconv_r
 .text.malloc   0x00021580       0x10 d:/rt-threadstudio/repo/extract/toolchain_support_packages/arm/gnu_tools_for_arm_embedded_processors/5.4.1/bin/../lib/gcc/arm-none-eabi/5.4.1/../../../../arm-none-eabi/lib/armv7-ar/thumb/softfp\libc.a(lib_a-malloc.o)
                0x00021580                malloc
 .text.__ascii_mbtowc
                0x00021590       0x2c d:/rt-threadstudio/repo/extract/toolchain_support_packages/arm/gnu_tools_for_arm_embedded_processors/5.4.1/bin/../lib/gcc/arm-none-eabi/5.4.1/../../../../arm-none-eabi/lib/armv7-ar/thumb/softfp\libc.a(lib_a-mbtowc_r.o)
                0x00021590                __ascii_mbtowc
 .text.memchr   0x000215bc       0x8c d:/rt-threadstudio/repo/extract/toolchain_support_packages/arm/gnu_tools_for_arm_embedded_processors/5.4.1/bin/../lib/gcc/arm-none-eabi/5.4.1/../../../../arm-none-eabi/lib/armv7-ar/thumb/softfp\libc.a(lib_a-memchr-stub.o)
                0x000215bc                memchr
 .text.memmove  0x00021648       0xc4 d:/rt-threadstudio/repo/extract/toolchain_support_packages/arm/gnu_tools_for_arm_embedded_processors/5.4.1/bin/../lib/gcc/arm-none-eabi/5.4.1/../../../../arm-none-eabi/lib/armv7-ar/thumb/softfp\libc.a(lib_a-memmove.o)
                0x00021648                memmove
 .text._Balloc  0x0002170c       0x50 d:/rt-threadstudio/repo/extract/toolchain_support_packages/arm/gnu_tools_for_arm_embedded_processors/5.4.1/bin/../lib/gcc/arm-none-eabi/5.4.1/../../../../arm-none-eabi/lib/armv7-ar/thumb/softfp\libc.a(lib_a-mprec.o)
                0x0002170c                _Balloc
 .text._Bfree   0x0002175c       0x14 d:/rt-threadstudio/repo/extract/toolchain_support_packages/arm/gnu_tools_for_arm_embedded_processors/5.4.1/bin/../lib/gcc/arm-none-eabi/5.4.1/../../../../arm-none-eabi/lib/armv7-ar/thumb/softfp\libc.a(lib_a-mprec.o)
                0x0002175c                _Bfree
 .text.__multadd
                0x00021770       0x88 d:/rt-threadstudio/repo/extract/toolchain_support_packages/arm/gnu_tools_for_arm_embedded_processors/5.4.1/bin/../lib/gcc/arm-none-eabi/5.4.1/../../../../arm-none-eabi/lib/armv7-ar/thumb/softfp\libc.a(lib_a-mprec.o)
                0x00021770                __multadd
 .text.__hi0bits
                0x000217f8       0x40 d:/rt-threadstudio/repo/extract/toolchain_support_packages/arm/gnu_tools_for_arm_embedded_processors/5.4.1/bin/../lib/gcc/arm-none-eabi/5.4.1/../../../../arm-none-eabi/lib/armv7-ar/thumb/softfp\libc.a(lib_a-mprec.o)
                0x000217f8                __hi0bits
 .text.__lo0bits
                0x00021838       0x58 d:/rt-threadstudio/repo/extract/toolchain_support_packages/arm/gnu_tools_for_arm_embedded_processors/5.4.1/bin/../lib/gcc/arm-none-eabi/5.4.1/../../../../arm-none-eabi/lib/armv7-ar/thumb/softfp\libc.a(lib_a-mprec.o)
                0x00021838                __lo0bits
 .text.__i2b    0x00021890       0x14 d:/rt-threadstudio/repo/extract/toolchain_support_packages/arm/gnu_tools_for_arm_embedded_processors/5.4.1/bin/../lib/gcc/arm-none-eabi/5.4.1/../../../../arm-none-eabi/lib/armv7-ar/thumb/softfp\libc.a(lib_a-mprec.o)
                0x00021890                __i2b
 .text.__multiply
                0x000218a4      0x14c d:/rt-threadstudio/repo/extract/toolchain_support_packages/arm/gnu_tools_for_arm_embedded_processors/5.4.1/bin/../lib/gcc/arm-none-eabi/5.4.1/../../../../arm-none-eabi/lib/armv7-ar/thumb/softfp\libc.a(lib_a-mprec.o)
                0x000218a4                __multiply
 .text.__pow5mult
                0x000219f0       0xa4 d:/rt-threadstudio/repo/extract/toolchain_support_packages/arm/gnu_tools_for_arm_embedded_processors/5.4.1/bin/../lib/gcc/arm-none-eabi/5.4.1/../../../../arm-none-eabi/lib/armv7-ar/thumb/softfp\libc.a(lib_a-mprec.o)
                0x000219f0                __pow5mult
 .text.__lshift
                0x00021a94       0xb0 d:/rt-threadstudio/repo/extract/toolchain_support_packages/arm/gnu_tools_for_arm_embedded_processors/5.4.1/bin/../lib/gcc/arm-none-eabi/5.4.1/../../../../arm-none-eabi/lib/armv7-ar/thumb/softfp\libc.a(lib_a-mprec.o)
                0x00021a94                __lshift
 .text.__mcmp   0x00021b44       0x44 d:/rt-threadstudio/repo/extract/toolchain_support_packages/arm/gnu_tools_for_arm_embedded_processors/5.4.1/bin/../lib/gcc/arm-none-eabi/5.4.1/../../../../arm-none-eabi/lib/armv7-ar/thumb/softfp\libc.a(lib_a-mprec.o)
                0x00021b44                __mcmp
 .text.__mdiff  0x00021b88      0x124 d:/rt-threadstudio/repo/extract/toolchain_support_packages/arm/gnu_tools_for_arm_embedded_processors/5.4.1/bin/../lib/gcc/arm-none-eabi/5.4.1/../../../../arm-none-eabi/lib/armv7-ar/thumb/softfp\libc.a(lib_a-mprec.o)
                0x00021b88                __mdiff
 .text.__d2b    0x00021cac       0xb8 d:/rt-threadstudio/repo/extract/toolchain_support_packages/arm/gnu_tools_for_arm_embedded_processors/5.4.1/bin/../lib/gcc/arm-none-eabi/5.4.1/../../../../arm-none-eabi/lib/armv7-ar/thumb/softfp\libc.a(lib_a-mprec.o)
                0x00021cac                __d2b
 .text.__ssprint_r
                0x00021d64      0x108 d:/rt-threadstudio/repo/extract/toolchain_support_packages/arm/gnu_tools_for_arm_embedded_processors/5.4.1/bin/../lib/gcc/arm-none-eabi/5.4.1/../../../../arm-none-eabi/lib/armv7-ar/thumb/softfp\libc.a(lib_a-svfiprintf.o)
                0x00021d64                __ssprint_r
 .text.__ascii_wctomb
                0x00021e6c       0x18 d:/rt-threadstudio/repo/extract/toolchain_support_packages/arm/gnu_tools_for_arm_embedded_processors/5.4.1/bin/../lib/gcc/arm-none-eabi/5.4.1/../../../../arm-none-eabi/lib/armv7-ar/thumb/softfp\libc.a(lib_a-wctomb_r.o)
                0x00021e6c                __ascii_wctomb
 .text.__swsetup_r
                0x00021e84       0xc8 d:/rt-threadstudio/repo/extract/toolchain_support_packages/arm/gnu_tools_for_arm_embedded_processors/5.4.1/bin/../lib/gcc/arm-none-eabi/5.4.1/../../../../arm-none-eabi/lib/armv7-ar/thumb/softfp\libc.a(lib_a-wsetup.o)
                0x00021e84                __swsetup_r
 *fill*         0x00021f4c        0x4 00000000
 .text.__swsetup_r.__stub
                0x00021f50       0x18 linker stubs
                0x00021f68                __rodata_start = .
 *(.rodata)
 .rodata        0x00021f68       0x2c ./rt-thread/src/components.o
 .rodata        0x00021f94      0x1de ./rt-thread/src/device.o
 *fill*         0x00022172        0x2 00000000
 .rodata        0x00022174       0x47 ./rt-thread/src/idle.o
 *fill*         0x000221bb        0x1 00000000
 .rodata        0x000221bc      0x6ce ./rt-thread/src/ipc.o
 *fill*         0x0002288a        0x2 00000000
 .rodata        0x0002288c      0x1fd ./rt-thread/src/kservice.o
                0x0002292c                __lowest_bit_bitmap
 *fill*         0x00022a89        0x3 00000000
 .rodata        0x00022a8c      0x33c ./rt-thread/src/mem.o
 .rodata        0x00022dc8      0x11f ./rt-thread/src/object.o
 *fill*         0x00022ee7        0x1 00000000
 .rodata        0x00022ee8       0xba ./rt-thread/src/scheduler.o
 *fill*         0x00022fa2        0x2 00000000
 .rodata        0x00022fa4      0x272 ./rt-thread/src/thread.o
 *fill*         0x00023216        0x2 00000000
 .rodata        0x00023218      0x139 ./rt-thread/src/timer.o
 *fill*         0x00023351        0x3 00000000
 .rodata        0x00023354        0xd ./rt-thread/libcpu/arm/am335x/cpu.o
 *fill*         0x00023361        0x3 00000000
 .rodata        0x00023364       0x23 ./rt-thread/libcpu/arm/am335x/interrupt.o
 *fill*         0x00023387        0x1 00000000
 .rodata        0x00023388      0x160 ./rt-thread/libcpu/arm/am335x/trap.o
 .rodata        0x000234e8       0x17 ./rt-thread/components/libc/compilers/gcc/newlib/libc.o
 *fill*         0x000234ff        0x1 00000000
 .rodata        0x00023500       0x13 ./rt-thread/components/libc/compilers/gcc/newlib/stdio.o
 *fill*         0x00023513        0x1 00000000
 .rodata        0x00023514       0x93 ./rt-thread/components/libc/compilers/gcc/newlib/syscalls.o
 *fill*         0x000235a7        0x1 00000000
 .rodata        0x000235a8       0x2e ./rt-thread/components/libc/compilers/common/stdlib.o
 *fill*         0x000235d6        0x2 00000000
 .rodata        0x000235d8      0x6c9 ./rt-thread/components/finsh/cmd.o
 *fill*         0x00023ca1        0x3 00000000
 .rodata        0x00023ca4       0x8a ./rt-thread/components/finsh/msh.o
 *fill*         0x00023d2e        0x2 00000000
 .rodata        0x00023d30      0x496 ./rt-thread/components/finsh/msh_file.o
 *fill*         0x000241c6        0x2 00000000
 .rodata        0x000241c8       0xc3 ./rt-thread/components/finsh/shell.o
 *fill*         0x0002428b        0x1 00000000
 .rodata        0x0002428c       0xaf ./rt-thread/components/drivers/src/completion.o
 *fill*         0x0002433b        0x1 00000000
 .rodata        0x0002433c      0x11e ./rt-thread/components/drivers/src/dataqueue.o
 *fill*         0x0002445a        0x2 00000000
 .rodata        0x0002445c       0x3b ./rt-thread/components/drivers/src/waitqueue.o
 *fill*         0x00024497        0x1 00000000
 .rodata        0x00024498      0x16b ./rt-thread/components/drivers/src/workqueue.o
 *fill*         0x00024603        0x1 00000000
 .rodata        0x00024604      0x38d ./rt-thread/components/drivers/serial/serial.o
 *fill*         0x00024991        0x3 00000000
 .rodata        0x00024994      0x16b ./rt-thread/components/dfs/src/dfs.o
 *fill*         0x00024aff        0x1 00000000
 .rodata        0x00024b00      0x1d8 ./rt-thread/components/dfs/src/dfs_file.o
 .rodata        0x00024cd8      0x201 ./rt-thread/components/dfs/src/dfs_fs.o
 *fill*         0x00024ed9        0x3 00000000
 .rodata        0x00024edc        0x4 ./rt-thread/components/dfs/src/dfs_posix.o
 .rodata        0x00024ee0      0x123 ./rt-thread/components/dfs/filesystems/devfs/devfs.o
 *fill*         0x00025003        0x1 00000000
 .rodata        0x00025004        0xd ./drivers/board.o
 *fill*         0x00025011        0x3 00000000
 .rodata        0x00025014       0x19 ./drivers/drv_uart.o
 *fill*         0x0002502d        0x3 00000000
 .rodata        0x00025030       0x10 ./applications/main.o
 .rodata        0x00025040       0x60 ./HALCoGen/source/sys_vim.o
 *(.rodata.*)
 .rodata.name   0x000250a0      0x1e4 ./rt-thread/components/finsh/cmd.o
                0x000250a0                __fsym_hello_name
                0x000250a8                __fsym_hello_desc
                0x000250b8                __fsym_clear_name
                0x000250c0                __fsym_clear_desc
                0x000250dc                __fsym_version_name
                0x000250e4                __fsym_version_desc
                0x0002510c                __fsym_list_thread_name
                0x00025118                __fsym_list_thread_desc
                0x00025124                __fsym_list_sem_name
                0x00025130                __fsym_list_sem_desc
                0x0002514c                __fsym_list_event_name
                0x00025158                __fsym_list_event_desc
                0x00025170                __fsym_list_mutex_name
                0x0002517c                __fsym_list_mutex_desc
                0x00025194                __fsym_list_mailbox_name
                0x000251a4                __fsym_list_mailbox_desc
                0x000251bc                __fsym_list_msgqueue_name
                0x000251cc                __fsym_list_msgqueue_desc
                0x000251ec                __fsym_list_mempool_name
                0x000251fc                __fsym_list_mempool_desc
                0x00025218                __fsym_list_timer_name
                0x00025224                __fsym_list_timer_desc
                0x0002523c                __fsym_list_device_name
                0x00025248                __fsym_list_device_desc
                0x00025260                __fsym_list_name
                0x00025268                __fsym_list_desc
 .rodata.name   0x00025284       0x6d ./rt-thread/components/finsh/msh.o
                0x00025284                __fsym_help_name
                0x0002528c                __fsym_help_desc
                0x000252a4                __fsym_ps_name
                0x000252a8                __fsym_ps_desc
                0x000252c4                __fsym_free_name
                0x000252cc                __fsym_free_desc
 *fill*         0x000252f1        0x3 00000000
 .rodata.name   0x000252f4      0x1fc ./rt-thread/components/finsh/msh_file.o
                0x000252f4                __fsym_ls_name
                0x000252f8                __fsym_ls_desc
                0x0002531c                __fsym_cp_name
                0x00025320                __fsym_cp_desc
                0x00025338                __fsym_mv_name
                0x0002533c                __fsym_mv_desc
                0x00025354                __fsym_cat_name
                0x00025358                __fsym_cat_desc
                0x0002536c                __fsym_rm_name
                0x00025370                __fsym_rm_desc
                0x0002538c                __fsym_cd_name
                0x00025390                __fsym_cd_desc
                0x000253b4                __fsym_pwd_name
                0x000253b8                __fsym_pwd_desc
                0x000253ec                __fsym_mkdir_name
                0x000253f4                __fsym_mkdir_desc
                0x0002540c                __fsym_mkfs_name
                0x00025414                __fsym_mkfs_desc
                0x00025434                __fsym_mount_name
                0x0002543c                __fsym_mount_desc
                0x00025464                __fsym_umount_name
                0x0002546c                __fsym_umount_desc
                0x0002548c                __fsym_df_name
                0x00025490                __fsym_df_desc
                0x0002549c                __fsym_echo_name
                0x000254a4                __fsym_echo_desc
                0x000254b8                __fsym_tail_name
                0x000254c0                __fsym_tail_desc
 .rodata.name   0x000254f0       0x1d ./rt-thread/components/dfs/src/dfs.o
                0x000254f0                __fsym_list_fd_name
                0x000254f8                __fsym_list_fd_desc
 *fill*         0x0002550d        0x3 00000000
 .rodata._global_impure_ptr
                0x00025510        0x4 d:/rt-threadstudio/repo/extract/toolchain_support_packages/arm/gnu_tools_for_arm_embedded_processors/5.4.1/bin/../lib/gcc/arm-none-eabi/5.4.1/../../../../arm-none-eabi/lib/armv7-ar/thumb/softfp\libc.a(lib_a-impure.o)
                0x00025510                _global_impure_ptr
 .rodata.str1.4
                0x00025514        0x2 d:/rt-threadstudio/repo/extract/toolchain_support_packages/arm/gnu_tools_for_arm_embedded_processors/5.4.1/bin/../lib/gcc/arm-none-eabi/5.4.1/../../../../arm-none-eabi/lib/armv7-ar/thumb/softfp\libc.a(lib_a-puts.o)
 *fill*         0x00025516        0x2 00000000
 .rodata.zeroes.7258
                0x00025518       0x10 d:/rt-threadstudio/repo/extract/toolchain_support_packages/arm/gnu_tools_for_arm_embedded_processors/5.4.1/bin/../lib/gcc/arm-none-eabi/5.4.1/../../../../arm-none-eabi/lib/armv7-ar/thumb/softfp\libc.a(lib_a-svfprintf.o)
 .rodata.str1.4
                0x00025528       0x42 d:/rt-threadstudio/repo/extract/toolchain_support_packages/arm/gnu_tools_for_arm_embedded_processors/5.4.1/bin/../lib/gcc/arm-none-eabi/5.4.1/../../../../arm-none-eabi/lib/armv7-ar/thumb/softfp\libc.a(lib_a-svfprintf.o)
 *fill*         0x0002556a        0x2 00000000
 .rodata.blanks.7257
                0x0002556c       0x10 d:/rt-threadstudio/repo/extract/toolchain_support_packages/arm/gnu_tools_for_arm_embedded_processors/5.4.1/bin/../lib/gcc/arm-none-eabi/5.4.1/../../../../arm-none-eabi/lib/armv7-ar/thumb/softfp\libc.a(lib_a-svfprintf.o)
 .rodata.str1.4
                0x0002557c       0x10 d:/rt-threadstudio/repo/extract/toolchain_support_packages/arm/gnu_tools_for_arm_embedded_processors/5.4.1/bin/../lib/gcc/arm-none-eabi/5.4.1/../../../../arm-none-eabi/lib/armv7-ar/thumb/softfp\libc.a(lib_a-dtoa.o)
                                 0x12 (size before relaxing)
 .rodata.str1.4
                0x0002558c       0x10 d:/rt-threadstudio/repo/extract/toolchain_support_packages/arm/gnu_tools_for_arm_embedded_processors/5.4.1/bin/../lib/gcc/arm-none-eabi/5.4.1/../../../../arm-none-eabi/lib/armv7-ar/thumb/softfp\libc.a(lib_a-locale.o)
                                 0x12 (size before relaxing)
 *fill*         0x0002559c        0x4 00000000
 .rodata.__mprec_tens
                0x000255a0       0xc8 d:/rt-threadstudio/repo/extract/toolchain_support_packages/arm/gnu_tools_for_arm_embedded_processors/5.4.1/bin/../lib/gcc/arm-none-eabi/5.4.1/../../../../arm-none-eabi/lib/armv7-ar/thumb/softfp\libc.a(lib_a-mprec.o)
                0x000255a0                __mprec_tens
 .rodata.__mprec_bigtens
                0x00025668       0x28 d:/rt-threadstudio/repo/extract/toolchain_support_packages/arm/gnu_tools_for_arm_embedded_processors/5.4.1/bin/../lib/gcc/arm-none-eabi/5.4.1/../../../../arm-none-eabi/lib/armv7-ar/thumb/softfp\libc.a(lib_a-mprec.o)
                0x00025668                __mprec_bigtens
 .rodata.p05.6087
                0x00025690        0xc d:/rt-threadstudio/repo/extract/toolchain_support_packages/arm/gnu_tools_for_arm_embedded_processors/5.4.1/bin/../lib/gcc/arm-none-eabi/5.4.1/../../../../arm-none-eabi/lib/armv7-ar/thumb/softfp\libc.a(lib_a-mprec.o)
 .rodata._ctype_
                0x0002569c      0x101 d:/rt-threadstudio/repo/extract/toolchain_support_packages/arm/gnu_tools_for_arm_embedded_processors/5.4.1/bin/../lib/gcc/arm-none-eabi/5.4.1/../../../../arm-none-eabi/lib/armv7-ar/thumb/softfp\libc.a(lib_a-ctype_.o)
                0x0002569c                _ctype_
                0x0002579d                __rodata_end = .
 *(.glue_7)
 .glue_7        0x0002579d        0x0 linker stubs
 *(.glue_7t)
 .glue_7t       0x0002579d        0x0 linker stubs
 *(.vfp11_veneer)
 .vfp11_veneer  0x0002579d        0x0 linker stubs
 *(.v4_bx)
 .v4_bx         0x0002579d        0x0 linker stubs
 *(.gnu.linkonce.t*)
                0x000257a0                . = ALIGN (0x4)
 *fill*         0x0002579d        0x3 00000000
                0x000257a0                __fsymtab_start = .
 *(FSymTab)
 FSymTab        0x000257a0       0x9c ./rt-thread/components/finsh/cmd.o
                0x000257a0                __fsym_hello
                0x000257ac                __fsym_clear
                0x000257b8                __fsym_version
                0x000257c4                __fsym_list_thread
                0x000257d0                __fsym_list_sem
                0x000257dc                __fsym_list_event
                0x000257e8                __fsym_list_mutex
                0x000257f4                __fsym_list_mailbox
                0x00025800                __fsym_list_msgqueue
                0x0002580c                __fsym_list_mempool
                0x00025818                __fsym_list_timer
                0x00025824                __fsym_list_device
                0x00025830                __fsym_list
 FSymTab        0x0002583c       0x24 ./rt-thread/components/finsh/msh.o
                0x0002583c                __fsym_help
                0x00025848                __fsym_ps
                0x00025854                __fsym_free
 FSymTab        0x00025860       0xa8 ./rt-thread/components/finsh/msh_file.o
                0x00025860                __fsym_ls
                0x0002586c                __fsym_cp
                0x00025878                __fsym_mv
                0x00025884                __fsym_cat
                0x00025890                __fsym_rm
                0x0002589c                __fsym_cd
                0x000258a8                __fsym_pwd
                0x000258b4                __fsym_mkdir
                0x000258c0                __fsym_mkfs
                0x000258cc                __fsym_mount
                0x000258d8                __fsym_umount
                0x000258e4                __fsym_df
                0x000258f0                __fsym_echo
                0x000258fc                __fsym_tail
 FSymTab        0x00025908        0xc ./rt-thread/components/dfs/src/dfs.o
                0x00025908                __fsym_list_fd
                0x00025914                __fsymtab_end = .
                0x00025914                . = ALIGN (0x4)
                0x00025914                __vsymtab_start = .
 *(VSymTab)
                0x00025914                __vsymtab_end = .
                0x00025914                . = ALIGN (0x4)
                0x00025914                . = ALIGN (0x4)
                0x00025914                __rtmsymtab_start = .
 *(RTMSymTab)
                0x00025914                __rtmsymtab_end = .
                0x00025914                . = ALIGN (0x4)
                0x00025914                __rt_init_start = .
 *(SORT(.rti_fn*))
 .rti_fn.0      0x00025914        0x4 ./rt-thread/src/components.o
                0x00025914                __rt_init_rti_start
 .rti_fn.0.end  0x00025918        0x4 ./rt-thread/src/components.o
                0x00025918                __rt_init_rti_board_start
 .rti_fn.1.end  0x0002591c        0x4 ./rt-thread/src/components.o
                0x0002591c                __rt_init_rti_board_end
 .rti_fn.2      0x00025920        0x4 ./rt-thread/components/drivers/src/workqueue.o
                0x00025920                __rt_init_rt_work_sys_workqueue_init
 .rti_fn.2      0x00025924        0x4 ./rt-thread/components/dfs/src/dfs.o
                0x00025924                __rt_init_dfs_init
 .rti_fn.4      0x00025928        0x4 ./rt-thread/components/libc/compilers/gcc/newlib/libc.o
                0x00025928                __rt_init_libc_system_init
 .rti_fn.6      0x0002592c        0x4 ./rt-thread/components/finsh/shell.o
                0x0002592c                __rt_init_finsh_system_init
 .rti_fn.6.end  0x00025930        0x4 ./rt-thread/src/components.o
                0x00025930                __rt_init_rti_end
                0x00025934                __rt_init_end = .
                0x00025934                __text_end = .

.init           0x00025934        0x4
 .init          0x00025934        0x4 d:/rt-threadstudio/repo/extract/toolchain_support_packages/arm/gnu_tools_for_arm_embedded_processors/5.4.1/bin/../lib/gcc/arm-none-eabi/5.4.1/armv7-ar/thumb/softfp/crti.o
                0x00025934                _init

.fini           0x00025938        0x4
 .fini          0x00025938        0x4 d:/rt-threadstudio/repo/extract/toolchain_support_packages/arm/gnu_tools_for_arm_embedded_processors/5.4.1/bin/../lib/gcc/arm-none-eabi/5.4.1/armv7-ar/thumb/softfp/crti.o
                0x00025938                _fini

.iplt           0x0002593c        0x0
 .iplt          0x0002593c        0x0 d:/rt-threadstudio/repo/extract/toolchain_support_packages/arm/gnu_tools_for_arm_embedded_processors/5.4.1/bin/../lib/gcc/arm-none-eabi/5.4.1/armv7-ar/thumb/softfp/crtbegin.o
                0x0002593c                . = ALIGN (0x4)

.ctors          0x0002593c        0x0
                0x0002593c                PROVIDE (__ctors_start__, .)
 *(SORT(.ctors.*))
 *(.ctors)
                0x0002593c                PROVIDE (__ctors_end__, .)

.dtors          0x0002593c        0x0
                [!provide]                PROVIDE (__dtors_start__, .)
 *(SORT(.dtors.*))
 *(.dtors)
                [!provide]                PROVIDE (__dtors_end__, .)
                0x0002593c                _sidata = .
                0x0002593c                __exidx_start = .

.ARM.exidx      0x0002593c        0x8
 *(.ARM.exidx* .gnu.linkonce.armexidx.*)
 .ARM.exidx     0x0002593c        0x8 d:/rt-threadstudio/repo/extract/toolchain_support_packages/arm/gnu_tools_for_arm_embedded_processors/5.4.1/bin/../lib/gcc/arm-none-eabi/5.4.1/armv7-ar/thumb/softfp\libgcc.a(_udivmoddi4.o)
                0x00025944                _sidata = .
                0x00025944                __exidx_end = .

.rel.dyn        0x00025944        0x0
 .rel.iplt      0x00025944        0x0 d:/rt-threadstudio/repo/extract/toolchain_support_packages/arm/gnu_tools_for_arm_embedded_processors/5.4.1/bin/../lib/gcc/arm-none-eabi/5.4.1/armv7-ar/thumb/softfp/crtbegin.o

.data           0x08000000      0x734 load address 0x00025944
                0x08000000                . = ALIGN (0x4)
                0x08000000                _sdata = .
 *(.data)
 .data          0x08000000        0x8 ./rt-thread/src/idle.o
 .data          0x08000008       0x90 ./rt-thread/src/object.o
 .data          0x08000098      0x100 ./rt-thread/components/dfs/src/dfs.o
                0x08000098                working_directory
 *(.data.*)
 .data.impure_data
                0x08000198      0x428 d:/rt-threadstudio/repo/extract/toolchain_support_packages/arm/gnu_tools_for_arm_embedded_processors/5.4.1/bin/../lib/gcc/arm-none-eabi/5.4.1/../../../../arm-none-eabi/lib/armv7-ar/thumb/softfp\libc.a(lib_a-impure.o)
 .data._impure_ptr
                0x080005c0        0x4 d:/rt-threadstudio/repo/extract/toolchain_support_packages/arm/gnu_tools_for_arm_embedded_processors/5.4.1/bin/../lib/gcc/arm-none-eabi/5.4.1/../../../../arm-none-eabi/lib/armv7-ar/thumb/softfp\libc.a(lib_a-impure.o)
                0x080005c0                _impure_ptr
 .data.environ  0x080005c4        0x4 d:/rt-threadstudio/repo/extract/toolchain_support_packages/arm/gnu_tools_for_arm_embedded_processors/5.4.1/bin/../lib/gcc/arm-none-eabi/5.4.1/../../../../arm-none-eabi/lib/armv7-ar/thumb/softfp\libc.a(lib_a-environ.o)
                0x080005c4                environ
 .data.__global_locale
                0x080005c8      0x16c d:/rt-threadstudio/repo/extract/toolchain_support_packages/arm/gnu_tools_for_arm_embedded_processors/5.4.1/bin/../lib/gcc/arm-none-eabi/5.4.1/../../../../arm-none-eabi/lib/armv7-ar/thumb/softfp\libc.a(lib_a-locale.o)
                0x080005c8                __global_locale
 *(.gnu.linkonce.d*)
                0x08000734                . = ALIGN (0x4)
                0x08000734                _edata = .
                0x08000734                __data_end = .
                0x08000734                __noinit_start = .

.igot.plt       0x08000734        0x0 load address 0x00026078
 .igot.plt      0x08000734        0x0 d:/rt-threadstudio/repo/extract/toolchain_support_packages/arm/gnu_tools_for_arm_embedded_processors/5.4.1/bin/../lib/gcc/arm-none-eabi/5.4.1/armv7-ar/thumb/softfp/crtbegin.o

.noinit         0x08000738     0x2000 load address 0x00026080
                0x08000738                . = ALIGN (0x4)
 *(.bss.noinit)
 .bss.noinit    0x08000738     0x2000 ./rt-thread/libcpu/arm/am335x/start_gcc.o
                0x08000738                stack_start
                0x08002738                stack_top
                0x08002738                __noinit_stop = .
                0x08002738                __bss_start = .

.bss            0x08002738      0x950 load address 0x00028080
                0x08002738                . = ALIGN (0x4)
                0x08002738                _sbss = .
 *(.bss)
 .bss           0x08002738        0x4 ./rt-thread/src/clock.o
 .bss           0x0800273c      0x190 ./rt-thread/src/idle.o
 .bss           0x080028cc        0x9 ./rt-thread/src/irq.o
                0x080028d4                rt_interrupt_nest
 *fill*         0x080028d5        0x3 
 .bss           0x080028d8       0x88 ./rt-thread/src/kservice.o
 .bss           0x08002960       0x40 ./rt-thread/src/mem.o
 .bss           0x080029a0        0x8 ./rt-thread/src/object.o
 .bss           0x080029a8       0x10 ./rt-thread/src/scheduler.o
                0x080029ac                rt_current_thread
 .bss           0x080029b8        0xc ./rt-thread/src/thread.o
 .bss           0x080029c4       0x14 ./rt-thread/src/timer.o
 .bss           0x080029d8        0x4 ./rt-thread/components/libc/compilers/gcc/newlib/stdio.o
 .bss           0x080029dc       0x8d ./rt-thread/components/finsh/shell.o
                0x080029dc                _syscall_table_begin
                0x080029e0                _syscall_table_end
 *fill*         0x08002a69        0x3 
 .bss           0x08002a6c        0x4 ./rt-thread/components/drivers/src/workqueue.o
 .bss           0x08002a70        0x4 ./rt-thread/components/drivers/serial/serial.o
 .bss           0x08002a74       0x30 ./rt-thread/components/dfs/src/dfs.o
 .bss           0x08002aa4      0x128 ./rt-thread/components/dfs/src/dfs_file.o
 .bss           0x08002bcc       0x64 ./drivers/drv_uart.o
 *(.bss.*)
 .bss.alloced.4731
                0x08002c30        0x4 d:/rt-threadstudio/repo/extract/toolchain_support_packages/arm/gnu_tools_for_arm_embedded_processors/5.4.1/bin/../lib/gcc/arm-none-eabi/5.4.1/../../../../arm-none-eabi/lib/armv7-ar/thumb/softfp\libc.a(lib_a-setenv_r.o)
 .bss.initial_env
                0x08002c34        0x4 d:/rt-threadstudio/repo/extract/toolchain_support_packages/arm/gnu_tools_for_arm_embedded_processors/5.4.1/bin/../lib/gcc/arm-none-eabi/5.4.1/../../../../arm-none-eabi/lib/armv7-ar/thumb/softfp\libc.a(lib_a-environ.o)
 *(COMMON)
 COMMON         0x08002c38        0x4 ./rt-thread/src/kservice.o
                0x08002c38                rt_assert_hook
 COMMON         0x08002c3c        0xc ./rt-thread/src/object.o
                0x08002c3c                rt_object_put_hook
                0x08002c40                rt_object_take_hook
                0x08002c44                rt_object_trytake_hook
 COMMON         0x08002c48      0x108 ./rt-thread/src/scheduler.o
                0x08002c48                rt_thread_priority_table
                0x08002d48                rt_current_priority
                0x08002d4c                rt_thread_ready_priority_group
 COMMON         0x08002d50      0x30c ./rt-thread/libcpu/arm/am335x/interrupt.o
                0x08002d50                rt_interrupt_to_thread
                0x08002d54                rt_interrupt_from_thread
                0x08002d58                rt_thread_switch_interrupt_flag
                0x08002d5c                irq_desc
 COMMON         0x0800305c        0x4 ./rt-thread/components/finsh/shell.o
                0x0800305c                shell
 COMMON         0x08003060       0x28 ./rt-thread/components/dfs/src/dfs.o
                0x08003060                filesystem_table
                0x08003080                filesystem_operation_table
                0x08003088                . = ALIGN (0x4)
                0x08003088                _ebss = .
                0x08003088                __bss_end = .
                0x08003088                _end = .
OUTPUT(rtthread.elf elf32-littlearm)

.ARM.attributes
                0x00000000       0x2b
 .ARM.attributes
                0x00000000       0x1b d:/rt-threadstudio/repo/extract/toolchain_support_packages/arm/gnu_tools_for_arm_embedded_processors/5.4.1/bin/../lib/gcc/arm-none-eabi/5.4.1/armv7-ar/thumb/softfp/crti.o
 .ARM.attributes
                0x0000001b       0x2d ./rt-thread/src/clock.o
 .ARM.attributes
                0x00000048       0x2d ./rt-thread/src/components.o
 .ARM.attributes
                0x00000075       0x2d ./rt-thread/src/device.o
 .ARM.attributes
                0x000000a2       0x2d ./rt-thread/src/idle.o
 .ARM.attributes
                0x000000cf       0x2d ./rt-thread/src/ipc.o
 .ARM.attributes
                0x000000fc       0x2d ./rt-thread/src/irq.o
 .ARM.attributes
                0x00000129       0x2d ./rt-thread/src/kservice.o
 .ARM.attributes
                0x00000156       0x2d ./rt-thread/src/mem.o
 .ARM.attributes
                0x00000183       0x2d ./rt-thread/src/object.o
 .ARM.attributes
                0x000001b0       0x2d ./rt-thread/src/scheduler.o
 .ARM.attributes
                0x000001dd       0x2d ./rt-thread/src/thread.o
 .ARM.attributes
                0x0000020a       0x2d ./rt-thread/src/timer.o
 .ARM.attributes
                0x00000237       0x1f ./rt-thread/libcpu/arm/am335x/context_gcc.o
 .ARM.attributes
                0x00000256       0x2d ./rt-thread/libcpu/arm/am335x/cpu.o
 .ARM.attributes
                0x00000283       0x2d ./rt-thread/libcpu/arm/am335x/interrupt.o
 .ARM.attributes
                0x000002b0       0x2d ./rt-thread/libcpu/arm/am335x/stack.o
 .ARM.attributes
                0x000002dd       0x1f ./rt-thread/libcpu/arm/am335x/start_gcc.o
 .ARM.attributes
                0x000002fc       0x2d ./rt-thread/libcpu/arm/am335x/trap.o
 .ARM.attributes
                0x00000329       0x1f ./rt-thread/libcpu/arm/am335x/vector_gcc.o
 .ARM.attributes
                0x00000348       0x2d ./rt-thread/components/libc/compilers/gcc/newlib/libc.o
 .ARM.attributes
                0x00000375       0x2d ./rt-thread/components/libc/compilers/gcc/newlib/stdio.o
 .ARM.attributes
                0x000003a2       0x2d ./rt-thread/components/libc/compilers/gcc/newlib/syscalls.o
 .ARM.attributes
                0x000003cf       0x2d ./rt-thread/components/libc/compilers/common/stdlib.o
 .ARM.attributes
                0x000003fc       0x2d ./rt-thread/components/finsh/cmd.o
 .ARM.attributes
                0x00000429       0x2d ./rt-thread/components/finsh/msh.o
 .ARM.attributes
                0x00000456       0x2d ./rt-thread/components/finsh/msh_file.o
 .ARM.attributes
                0x00000483       0x2d ./rt-thread/components/finsh/shell.o
 .ARM.attributes
                0x000004b0       0x2d ./rt-thread/components/drivers/src/completion.o
 .ARM.attributes
                0x000004dd       0x2d ./rt-thread/components/drivers/src/dataqueue.o
 .ARM.attributes
                0x0000050a       0x2d ./rt-thread/components/drivers/src/waitqueue.o
 .ARM.attributes
                0x00000537       0x2d ./rt-thread/components/drivers/src/workqueue.o
 .ARM.attributes
                0x00000564       0x2d ./rt-thread/components/drivers/serial/serial.o
 .ARM.attributes
                0x00000591       0x2d ./rt-thread/components/dfs/src/dfs.o
 .ARM.attributes
                0x000005be       0x2d ./rt-thread/components/dfs/src/dfs_file.o
 .ARM.attributes
                0x000005eb       0x2d ./rt-thread/components/dfs/src/dfs_fs.o
 .ARM.attributes
                0x00000618       0x2d ./rt-thread/components/dfs/src/dfs_posix.o
 .ARM.attributes
                0x00000645       0x2d ./rt-thread/components/dfs/filesystems/devfs/devfs.o
 .ARM.attributes
                0x00000672       0x2d ./drivers/board.o
 .ARM.attributes
                0x0000069f       0x2d ./drivers/drv_uart.o
 .ARM.attributes
                0x000006cc       0x2d ./applications/main.o
 .ARM.attributes
                0x000006f9       0x2d ./HALCoGen/source/rti.o
 .ARM.attributes
                0x00000726       0x2d ./HALCoGen/source/sys_startup.o
 .ARM.attributes
                0x00000753       0x2d ./HALCoGen/source/sys_vim.o
 .ARM.attributes
                0x00000780       0x2d ./HALCoGen/source/system.o
 .ARM.attributes
                0x000007ad       0x2b d:/rt-threadstudio/repo/extract/toolchain_support_packages/arm/gnu_tools_for_arm_embedded_processors/5.4.1/bin/../lib/gcc/arm-none-eabi/5.4.1/../../../../arm-none-eabi/lib/armv7-ar/thumb/softfp\libc.a(lib_a-atoi.o)
 .ARM.attributes
                0x000007d8       0x2b d:/rt-threadstudio/repo/extract/toolchain_support_packages/arm/gnu_tools_for_arm_embedded_processors/5.4.1/bin/../lib/gcc/arm-none-eabi/5.4.1/../../../../arm-none-eabi/lib/armv7-ar/thumb/softfp\libc.a(lib_a-fclose.o)
 .ARM.attributes
                0x00000803       0x2b d:/rt-threadstudio/repo/extract/toolchain_support_packages/arm/gnu_tools_for_arm_embedded_processors/5.4.1/bin/../lib/gcc/arm-none-eabi/5.4.1/../../../../arm-none-eabi/lib/armv7-ar/thumb/softfp\libc.a(lib_a-fflush.o)
 .ARM.attributes
                0x0000082e       0x2b d:/rt-threadstudio/repo/extract/toolchain_support_packages/arm/gnu_tools_for_arm_embedded_processors/5.4.1/bin/../lib/gcc/arm-none-eabi/5.4.1/../../../../arm-none-eabi/lib/armv7-ar/thumb/softfp\libc.a(lib_a-fileno.o)
 .ARM.attributes
                0x00000859       0x2b d:/rt-threadstudio/repo/extract/toolchain_support_packages/arm/gnu_tools_for_arm_embedded_processors/5.4.1/bin/../lib/gcc/arm-none-eabi/5.4.1/../../../../arm-none-eabi/lib/armv7-ar/thumb/softfp\libc.a(lib_a-findfp.o)
 .ARM.attributes
                0x00000884       0x2b d:/rt-threadstudio/repo/extract/toolchain_support_packages/arm/gnu_tools_for_arm_embedded_processors/5.4.1/bin/../lib/gcc/arm-none-eabi/5.4.1/../../../../arm-none-eabi/lib/armv7-ar/thumb/softfp\libc.a(lib_a-fopen.o)
 .ARM.attributes
                0x000008af       0x2b d:/rt-threadstudio/repo/extract/toolchain_support_packages/arm/gnu_tools_for_arm_embedded_processors/5.4.1/bin/../lib/gcc/arm-none-eabi/5.4.1/../../../../arm-none-eabi/lib/armv7-ar/thumb/softfp\libc.a(lib_a-fseek.o)
 .ARM.attributes
                0x000008da       0x2b d:/rt-threadstudio/repo/extract/toolchain_support_packages/arm/gnu_tools_for_arm_embedded_processors/5.4.1/bin/../lib/gcc/arm-none-eabi/5.4.1/../../../../arm-none-eabi/lib/armv7-ar/thumb/softfp\libc.a(lib_a-fseeko.o)
 .ARM.attributes
                0x00000905       0x2b d:/rt-threadstudio/repo/extract/toolchain_support_packages/arm/gnu_tools_for_arm_embedded_processors/5.4.1/bin/../lib/gcc/arm-none-eabi/5.4.1/../../../../arm-none-eabi/lib/armv7-ar/thumb/softfp\libc.a(lib_a-fwalk.o)
 .ARM.attributes
                0x00000930       0x2b d:/rt-threadstudio/repo/extract/toolchain_support_packages/arm/gnu_tools_for_arm_embedded_processors/5.4.1/bin/../lib/gcc/arm-none-eabi/5.4.1/../../../../arm-none-eabi/lib/armv7-ar/thumb/softfp\libc.a(lib_a-getc.o)
 .ARM.attributes
                0x0000095b       0x2b d:/rt-threadstudio/repo/extract/toolchain_support_packages/arm/gnu_tools_for_arm_embedded_processors/5.4.1/bin/../lib/gcc/arm-none-eabi/5.4.1/../../../../arm-none-eabi/lib/armv7-ar/thumb/softfp\libc.a(lib_a-impure.o)
 .ARM.attributes
                0x00000986       0x2b d:/rt-threadstudio/repo/extract/toolchain_support_packages/arm/gnu_tools_for_arm_embedded_processors/5.4.1/bin/../lib/gcc/arm-none-eabi/5.4.1/../../../../arm-none-eabi/lib/armv7-ar/thumb/softfp\libc.a(lib_a-makebuf.o)
 .ARM.attributes
                0x000009b1       0x2b d:/rt-threadstudio/repo/extract/toolchain_support_packages/arm/gnu_tools_for_arm_embedded_processors/5.4.1/bin/../lib/gcc/arm-none-eabi/5.4.1/../../../../arm-none-eabi/lib/armv7-ar/thumb/softfp\libc.a(lib_a-memcmp.o)
 .ARM.attributes
                0x000009dc       0x19 d:/rt-threadstudio/repo/extract/toolchain_support_packages/arm/gnu_tools_for_arm_embedded_processors/5.4.1/bin/../lib/gcc/arm-none-eabi/5.4.1/../../../../arm-none-eabi/lib/armv7-ar/thumb/softfp\libc.a(lib_a-memcpy.o)
 .ARM.attributes
                0x000009f5       0x2b d:/rt-threadstudio/repo/extract/toolchain_support_packages/arm/gnu_tools_for_arm_embedded_processors/5.4.1/bin/../lib/gcc/arm-none-eabi/5.4.1/../../../../arm-none-eabi/lib/armv7-ar/thumb/softfp\libc.a(lib_a-memset.o)
 .ARM.attributes
                0x00000a20       0x2b d:/rt-threadstudio/repo/extract/toolchain_support_packages/arm/gnu_tools_for_arm_embedded_processors/5.4.1/bin/../lib/gcc/arm-none-eabi/5.4.1/../../../../arm-none-eabi/lib/armv7-ar/thumb/softfp\libc.a(lib_a-putenv.o)
 .ARM.attributes
                0x00000a4b       0x2b d:/rt-threadstudio/repo/extract/toolchain_support_packages/arm/gnu_tools_for_arm_embedded_processors/5.4.1/bin/../lib/gcc/arm-none-eabi/5.4.1/../../../../arm-none-eabi/lib/armv7-ar/thumb/softfp\libc.a(lib_a-putenv_r.o)
 .ARM.attributes
                0x00000a76       0x2b d:/rt-threadstudio/repo/extract/toolchain_support_packages/arm/gnu_tools_for_arm_embedded_processors/5.4.1/bin/../lib/gcc/arm-none-eabi/5.4.1/../../../../arm-none-eabi/lib/armv7-ar/thumb/softfp\libc.a(lib_a-puts.o)
 .ARM.attributes
                0x00000aa1       0x2b d:/rt-threadstudio/repo/extract/toolchain_support_packages/arm/gnu_tools_for_arm_embedded_processors/5.4.1/bin/../lib/gcc/arm-none-eabi/5.4.1/../../../../arm-none-eabi/lib/armv7-ar/thumb/softfp\libc.a(lib_a-refill.o)
 .ARM.attributes
                0x00000acc       0x2b d:/rt-threadstudio/repo/extract/toolchain_support_packages/arm/gnu_tools_for_arm_embedded_processors/5.4.1/bin/../lib/gcc/arm-none-eabi/5.4.1/../../../../arm-none-eabi/lib/armv7-ar/thumb/softfp\libc.a(lib_a-rget.o)
 .ARM.attributes
                0x00000af7       0x2b d:/rt-threadstudio/repo/extract/toolchain_support_packages/arm/gnu_tools_for_arm_embedded_processors/5.4.1/bin/../lib/gcc/arm-none-eabi/5.4.1/../../../../arm-none-eabi/lib/armv7-ar/thumb/softfp\libc.a(lib_a-setenv_r.o)
 .ARM.attributes
                0x00000b22       0x2b d:/rt-threadstudio/repo/extract/toolchain_support_packages/arm/gnu_tools_for_arm_embedded_processors/5.4.1/bin/../lib/gcc/arm-none-eabi/5.4.1/../../../../arm-none-eabi/lib/armv7-ar/thumb/softfp\libc.a(lib_a-setvbuf.o)
 .ARM.attributes
                0x00000b4d       0x2b d:/rt-threadstudio/repo/extract/toolchain_support_packages/arm/gnu_tools_for_arm_embedded_processors/5.4.1/bin/../lib/gcc/arm-none-eabi/5.4.1/../../../../arm-none-eabi/lib/armv7-ar/thumb/softfp\libc.a(lib_a-snprintf.o)
 .ARM.attributes
                0x00000b78       0x2b d:/rt-threadstudio/repo/extract/toolchain_support_packages/arm/gnu_tools_for_arm_embedded_processors/5.4.1/bin/../lib/gcc/arm-none-eabi/5.4.1/../../../../arm-none-eabi/lib/armv7-ar/thumb/softfp\libc.a(lib_a-stdio.o)
 .ARM.attributes
                0x00000ba3       0x2b d:/rt-threadstudio/repo/extract/toolchain_support_packages/arm/gnu_tools_for_arm_embedded_processors/5.4.1/bin/../lib/gcc/arm-none-eabi/5.4.1/../../../../arm-none-eabi/lib/armv7-ar/thumb/softfp\libc.a(lib_a-strchr.o)
 .ARM.attributes
                0x00000bce       0x19 d:/rt-threadstudio/repo/extract/toolchain_support_packages/arm/gnu_tools_for_arm_embedded_processors/5.4.1/bin/../lib/gcc/arm-none-eabi/5.4.1/../../../../arm-none-eabi/lib/armv7-ar/thumb/softfp\libc.a(lib_a-strcmp.o)
 .ARM.attributes
                0x00000be7       0x2b d:/rt-threadstudio/repo/extract/toolchain_support_packages/arm/gnu_tools_for_arm_embedded_processors/5.4.1/bin/../lib/gcc/arm-none-eabi/5.4.1/../../../../arm-none-eabi/lib/armv7-ar/thumb/softfp\libc.a(lib_a-strcpy.o)
 .ARM.attributes
                0x00000c12       0x2b d:/rt-threadstudio/repo/extract/toolchain_support_packages/arm/gnu_tools_for_arm_embedded_processors/5.4.1/bin/../lib/gcc/arm-none-eabi/5.4.1/../../../../arm-none-eabi/lib/armv7-ar/thumb/softfp\libc.a(lib_a-strdup_r.o)
 .ARM.attributes
                0x00000c3d       0x2b d:/rt-threadstudio/repo/extract/toolchain_support_packages/arm/gnu_tools_for_arm_embedded_processors/5.4.1/bin/../lib/gcc/arm-none-eabi/5.4.1/../../../../arm-none-eabi/lib/armv7-ar/thumb/softfp\libc.a(lib_a-strlen-stub.o)
 .ARM.attributes
                0x00000c68       0x2b d:/rt-threadstudio/repo/extract/toolchain_support_packages/arm/gnu_tools_for_arm_embedded_processors/5.4.1/bin/../lib/gcc/arm-none-eabi/5.4.1/../../../../arm-none-eabi/lib/armv7-ar/thumb/softfp\libc.a(lib_a-strncmp.o)
 .ARM.attributes
                0x00000c93       0x2b d:/rt-threadstudio/repo/extract/toolchain_support_packages/arm/gnu_tools_for_arm_embedded_processors/5.4.1/bin/../lib/gcc/arm-none-eabi/5.4.1/../../../../arm-none-eabi/lib/armv7-ar/thumb/softfp\libc.a(lib_a-strncpy.o)
 .ARM.attributes
                0x00000cbe       0x2b d:/rt-threadstudio/repo/extract/toolchain_support_packages/arm/gnu_tools_for_arm_embedded_processors/5.4.1/bin/../lib/gcc/arm-none-eabi/5.4.1/../../../../arm-none-eabi/lib/armv7-ar/thumb/softfp\libc.a(lib_a-strrchr.o)
 .ARM.attributes
                0x00000ce9       0x2b d:/rt-threadstudio/repo/extract/toolchain_support_packages/arm/gnu_tools_for_arm_embedded_processors/5.4.1/bin/../lib/gcc/arm-none-eabi/5.4.1/../../../../arm-none-eabi/lib/armv7-ar/thumb/softfp\libc.a(lib_a-strstr.o)
 .ARM.attributes
                0x00000d14       0x2b d:/rt-threadstudio/repo/extract/toolchain_support_packages/arm/gnu_tools_for_arm_embedded_processors/5.4.1/bin/../lib/gcc/arm-none-eabi/5.4.1/../../../../arm-none-eabi/lib/armv7-ar/thumb/softfp\libc.a(lib_a-strtol.o)
 .ARM.attributes
                0x00000d3f       0x2b d:/rt-threadstudio/repo/extract/toolchain_support_packages/arm/gnu_tools_for_arm_embedded_processors/5.4.1/bin/../lib/gcc/arm-none-eabi/5.4.1/../../../../arm-none-eabi/lib/armv7-ar/thumb/softfp\libc.a(lib_a-svfprintf.o)
 .ARM.attributes
                0x00000d6a       0x2b d:/rt-threadstudio/repo/extract/toolchain_support_packages/arm/gnu_tools_for_arm_embedded_processors/5.4.1/bin/../lib/gcc/arm-none-eabi/5.4.1/../../../../arm-none-eabi/lib/armv7-ar/thumb/softfp\libc.a(lib_a-dtoa.o)
 .ARM.attributes
                0x00000d95       0x2b d:/rt-threadstudio/repo/extract/toolchain_support_packages/arm/gnu_tools_for_arm_embedded_processors/5.4.1/bin/../lib/gcc/arm-none-eabi/5.4.1/../../../../arm-none-eabi/lib/armv7-ar/thumb/softfp\libc.a(lib_a-environ.o)
 .ARM.attributes
                0x00000dc0       0x2b d:/rt-threadstudio/repo/extract/toolchain_support_packages/arm/gnu_tools_for_arm_embedded_processors/5.4.1/bin/../lib/gcc/arm-none-eabi/5.4.1/../../../../arm-none-eabi/lib/armv7-ar/thumb/softfp\libc.a(lib_a-envlock.o)
 .ARM.attributes
                0x00000deb       0x2b d:/rt-threadstudio/repo/extract/toolchain_support_packages/arm/gnu_tools_for_arm_embedded_processors/5.4.1/bin/../lib/gcc/arm-none-eabi/5.4.1/../../../../arm-none-eabi/lib/armv7-ar/thumb/softfp\libc.a(lib_a-flags.o)
 .ARM.attributes
                0x00000e16       0x2b d:/rt-threadstudio/repo/extract/toolchain_support_packages/arm/gnu_tools_for_arm_embedded_processors/5.4.1/bin/../lib/gcc/arm-none-eabi/5.4.1/../../../../arm-none-eabi/lib/armv7-ar/thumb/softfp\libc.a(lib_a-fvwrite.o)
 .ARM.attributes
                0x00000e41       0x2b d:/rt-threadstudio/repo/extract/toolchain_support_packages/arm/gnu_tools_for_arm_embedded_processors/5.4.1/bin/../lib/gcc/arm-none-eabi/5.4.1/../../../../arm-none-eabi/lib/armv7-ar/thumb/softfp\libc.a(lib_a-getenv_r.o)
 .ARM.attributes
                0x00000e6c       0x2b d:/rt-threadstudio/repo/extract/toolchain_support_packages/arm/gnu_tools_for_arm_embedded_processors/5.4.1/bin/../lib/gcc/arm-none-eabi/5.4.1/../../../../arm-none-eabi/lib/armv7-ar/thumb/softfp\libc.a(lib_a-locale.o)
 .ARM.attributes
                0x00000e97       0x2b d:/rt-threadstudio/repo/extract/toolchain_support_packages/arm/gnu_tools_for_arm_embedded_processors/5.4.1/bin/../lib/gcc/arm-none-eabi/5.4.1/../../../../arm-none-eabi/lib/armv7-ar/thumb/softfp\libc.a(lib_a-localeconv.o)
 .ARM.attributes
                0x00000ec2       0x2b d:/rt-threadstudio/repo/extract/toolchain_support_packages/arm/gnu_tools_for_arm_embedded_processors/5.4.1/bin/../lib/gcc/arm-none-eabi/5.4.1/../../../../arm-none-eabi/lib/armv7-ar/thumb/softfp\libc.a(lib_a-malloc.o)
 .ARM.attributes
                0x00000eed       0x2b d:/rt-threadstudio/repo/extract/toolchain_support_packages/arm/gnu_tools_for_arm_embedded_processors/5.4.1/bin/../lib/gcc/arm-none-eabi/5.4.1/../../../../arm-none-eabi/lib/armv7-ar/thumb/softfp\libc.a(lib_a-mbtowc_r.o)
 .ARM.attributes
                0x00000f18       0x2b d:/rt-threadstudio/repo/extract/toolchain_support_packages/arm/gnu_tools_for_arm_embedded_processors/5.4.1/bin/../lib/gcc/arm-none-eabi/5.4.1/../../../../arm-none-eabi/lib/armv7-ar/thumb/softfp\libc.a(lib_a-memchr-stub.o)
 .ARM.attributes
                0x00000f43       0x2b d:/rt-threadstudio/repo/extract/toolchain_support_packages/arm/gnu_tools_for_arm_embedded_processors/5.4.1/bin/../lib/gcc/arm-none-eabi/5.4.1/../../../../arm-none-eabi/lib/armv7-ar/thumb/softfp\libc.a(lib_a-memmove.o)
 .ARM.attributes
                0x00000f6e       0x2b d:/rt-threadstudio/repo/extract/toolchain_support_packages/arm/gnu_tools_for_arm_embedded_processors/5.4.1/bin/../lib/gcc/arm-none-eabi/5.4.1/../../../../arm-none-eabi/lib/armv7-ar/thumb/softfp\libc.a(lib_a-mprec.o)
 .ARM.attributes
                0x00000f99       0x2b d:/rt-threadstudio/repo/extract/toolchain_support_packages/arm/gnu_tools_for_arm_embedded_processors/5.4.1/bin/../lib/gcc/arm-none-eabi/5.4.1/../../../../arm-none-eabi/lib/armv7-ar/thumb/softfp\libc.a(lib_a-svfiprintf.o)
 .ARM.attributes
                0x00000fc4       0x2b d:/rt-threadstudio/repo/extract/toolchain_support_packages/arm/gnu_tools_for_arm_embedded_processors/5.4.1/bin/../lib/gcc/arm-none-eabi/5.4.1/../../../../arm-none-eabi/lib/armv7-ar/thumb/softfp\libc.a(lib_a-wctomb_r.o)
 .ARM.attributes
                0x00000fef       0x2b d:/rt-threadstudio/repo/extract/toolchain_support_packages/arm/gnu_tools_for_arm_embedded_processors/5.4.1/bin/../lib/gcc/arm-none-eabi/5.4.1/../../../../arm-none-eabi/lib/armv7-ar/thumb/softfp\libc.a(lib_a-wsetup.o)
 .ARM.attributes
                0x0000101a       0x2b d:/rt-threadstudio/repo/extract/toolchain_support_packages/arm/gnu_tools_for_arm_embedded_processors/5.4.1/bin/../lib/gcc/arm-none-eabi/5.4.1/../../../../arm-none-eabi/lib/armv7-ar/thumb/softfp\libc.a(lib_a-ctype_.o)
 .ARM.attributes
                0x00001045       0x1b d:/rt-threadstudio/repo/extract/toolchain_support_packages/arm/gnu_tools_for_arm_embedded_processors/5.4.1/bin/../lib/gcc/arm-none-eabi/5.4.1/armv7-ar/thumb/softfp\libgcc.a(_udivsi3.o)
 .ARM.attributes
                0x00001060       0x1b d:/rt-threadstudio/repo/extract/toolchain_support_packages/arm/gnu_tools_for_arm_embedded_processors/5.4.1/bin/../lib/gcc/arm-none-eabi/5.4.1/armv7-ar/thumb/softfp\libgcc.a(_divsi3.o)
 .ARM.attributes
                0x0000107b       0x1b d:/rt-threadstudio/repo/extract/toolchain_support_packages/arm/gnu_tools_for_arm_embedded_processors/5.4.1/bin/../lib/gcc/arm-none-eabi/5.4.1/armv7-ar/thumb/softfp\libgcc.a(_dvmd_tls.o)
 .ARM.attributes
                0x00001096       0x1b d:/rt-threadstudio/repo/extract/toolchain_support_packages/arm/gnu_tools_for_arm_embedded_processors/5.4.1/bin/../lib/gcc/arm-none-eabi/5.4.1/armv7-ar/thumb/softfp\libgcc.a(_aeabi_uldivmod.o)
 .ARM.attributes
                0x000010b1       0x2b d:/rt-threadstudio/repo/extract/toolchain_support_packages/arm/gnu_tools_for_arm_embedded_processors/5.4.1/bin/../lib/gcc/arm-none-eabi/5.4.1/armv7-ar/thumb/softfp\libgcc.a(_udivmoddi4.o)

.comment        0x00000000       0x6e
 .comment       0x00000000       0x6e ./rt-thread/src/clock.o
                                 0x6f (size before relaxing)
 .comment       0x0000006e       0x6f ./rt-thread/src/components.o
 .comment       0x0000006e       0x6f ./rt-thread/src/device.o
 .comment       0x0000006e       0x6f ./rt-thread/src/idle.o
 .comment       0x0000006e       0x6f ./rt-thread/src/ipc.o
 .comment       0x0000006e       0x6f ./rt-thread/src/irq.o
 .comment       0x0000006e       0x6f ./rt-thread/src/kservice.o
 .comment       0x0000006e       0x6f ./rt-thread/src/mem.o
 .comment       0x0000006e       0x6f ./rt-thread/src/object.o
 .comment       0x0000006e       0x6f ./rt-thread/src/scheduler.o
 .comment       0x0000006e       0x6f ./rt-thread/src/thread.o
 .comment       0x0000006e       0x6f ./rt-thread/src/timer.o
 .comment       0x0000006e       0x6f ./rt-thread/libcpu/arm/am335x/cpu.o
 .comment       0x0000006e       0x6f ./rt-thread/libcpu/arm/am335x/interrupt.o
 .comment       0x0000006e       0x6f ./rt-thread/libcpu/arm/am335x/stack.o
 .comment       0x0000006e       0x6f ./rt-thread/libcpu/arm/am335x/trap.o
 .comment       0x0000006e       0x6f ./rt-thread/components/libc/compilers/gcc/newlib/libc.o
 .comment       0x0000006e       0x6f ./rt-thread/components/libc/compilers/gcc/newlib/stdio.o
 .comment       0x0000006e       0x6f ./rt-thread/components/libc/compilers/gcc/newlib/syscalls.o
 .comment       0x0000006e       0x6f ./rt-thread/components/libc/compilers/common/stdlib.o
 .comment       0x0000006e       0x6f ./rt-thread/components/finsh/cmd.o
 .comment       0x0000006e       0x6f ./rt-thread/components/finsh/msh.o
 .comment       0x0000006e       0x6f ./rt-thread/components/finsh/msh_file.o
 .comment       0x0000006e       0x6f ./rt-thread/components/finsh/shell.o
 .comment       0x0000006e       0x6f ./rt-thread/components/drivers/src/completion.o
 .comment       0x0000006e       0x6f ./rt-thread/components/drivers/src/dataqueue.o
 .comment       0x0000006e       0x6f ./rt-thread/components/drivers/src/waitqueue.o
 .comment       0x0000006e       0x6f ./rt-thread/components/drivers/src/workqueue.o
 .comment       0x0000006e       0x6f ./rt-thread/components/drivers/serial/serial.o
 .comment       0x0000006e       0x6f ./rt-thread/components/dfs/src/dfs.o
 .comment       0x0000006e       0x6f ./rt-thread/components/dfs/src/dfs_file.o
 .comment       0x0000006e       0x6f ./rt-thread/components/dfs/src/dfs_fs.o
 .comment       0x0000006e       0x6f ./rt-thread/components/dfs/src/dfs_posix.o
 .comment       0x0000006e       0x6f ./rt-thread/components/dfs/filesystems/devfs/devfs.o
 .comment       0x0000006e       0x6f ./drivers/board.o
 .comment       0x0000006e       0x6f ./drivers/drv_uart.o
 .comment       0x0000006e       0x6f ./applications/main.o
 .comment       0x0000006e       0x6f ./HALCoGen/source/rti.o
 .comment       0x0000006e       0x6f ./HALCoGen/source/sys_startup.o
 .comment       0x0000006e       0x6f ./HALCoGen/source/sys_vim.o
 .comment       0x0000006e       0x6f ./HALCoGen/source/system.o

.debug_info     0x00000000    0x1c9c1
 .debug_info    0x00000000      0x44c ./rt-thread/src/clock.o
 .debug_info    0x0000044c      0x53e ./rt-thread/src/components.o
 .debug_info    0x0000098a      0x9bc ./rt-thread/src/device.o
 .debug_info    0x00001346      0x6a9 ./rt-thread/src/idle.o
 .debug_info    0x000019ef     0x1c3e ./rt-thread/src/ipc.o
 .debug_info    0x0000362d      0x1b0 ./rt-thread/src/irq.o
 .debug_info    0x000037dd     0x12db ./rt-thread/src/kservice.o
 .debug_info    0x00004ab8      0x6c6 ./rt-thread/src/mem.o
 .debug_info    0x0000517e      0x886 ./rt-thread/src/object.o
 .debug_info    0x00005a04      0x7f4 ./rt-thread/src/scheduler.o
 .debug_info    0x000061f8      0xc49 ./rt-thread/src/thread.o
 .debug_info    0x00006e41      0x90c ./rt-thread/src/timer.o
 .debug_info    0x0000774d       0x96 ./rt-thread/libcpu/arm/am335x/context_gcc.o
 .debug_info    0x000077e3       0xa4 ./rt-thread/libcpu/arm/am335x/cpu.o
 .debug_info    0x00007887      0x2a4 ./rt-thread/libcpu/arm/am335x/interrupt.o
 .debug_info    0x00007b2b      0x119 ./rt-thread/libcpu/arm/am335x/stack.o
 .debug_info    0x00007c44       0x94 ./rt-thread/libcpu/arm/am335x/start_gcc.o
 .debug_info    0x00007cd8      0x547 ./rt-thread/libcpu/arm/am335x/trap.o
 .debug_info    0x0000821f       0x95 ./rt-thread/libcpu/arm/am335x/vector_gcc.o
 .debug_info    0x000082b4      0x4aa ./rt-thread/components/libc/compilers/gcc/newlib/libc.o
 .debug_info    0x0000875e      0xa12 ./rt-thread/components/libc/compilers/gcc/newlib/stdio.o
 .debug_info    0x00009170     0x12d4 ./rt-thread/components/libc/compilers/gcc/newlib/syscalls.o
 .debug_info    0x0000a444      0x410 ./rt-thread/components/libc/compilers/common/stdlib.o
 .debug_info    0x0000a854     0x18a9 ./rt-thread/components/finsh/cmd.o
 .debug_info    0x0000c0fd      0x7bd ./rt-thread/components/finsh/msh.o
 .debug_info    0x0000c8ba     0x17a2 ./rt-thread/components/finsh/msh_file.o
 .debug_info    0x0000e05c     0x11ce ./rt-thread/components/finsh/shell.o
 .debug_info    0x0000f22a      0x58a ./rt-thread/components/drivers/src/completion.o
 .debug_info    0x0000f7b4      0x8d4 ./rt-thread/components/drivers/src/dataqueue.o
 .debug_info    0x00010088      0x6e4 ./rt-thread/components/drivers/src/waitqueue.o
 .debug_info    0x0001076c      0xb4e ./rt-thread/components/drivers/src/workqueue.o
 .debug_info    0x000112ba     0x269a ./rt-thread/components/drivers/serial/serial.o
 .debug_info    0x00013954     0x13a6 ./rt-thread/components/dfs/src/dfs.o
 .debug_info    0x00014cfa     0x1272 ./rt-thread/components/dfs/src/dfs_file.o
 .debug_info    0x00015f6c     0x10d0 ./rt-thread/components/dfs/src/dfs_fs.o
 .debug_info    0x0001703c     0x13dc ./rt-thread/components/dfs/src/dfs_posix.o
 .debug_info    0x00018418     0x10ab ./rt-thread/components/dfs/filesystems/devfs/devfs.o
 .debug_info    0x000194c3      0x32d ./drivers/board.o
 .debug_info    0x000197f0      0x9d9 ./drivers/drv_uart.o
 .debug_info    0x0001a1c9       0x9b ./applications/main.o
 .debug_info    0x0001a264      0x861 ./HALCoGen/source/rti.o
 .debug_info    0x0001aac5      0x7cc ./HALCoGen/source/sys_startup.o
 .debug_info    0x0001b291      0x532 ./HALCoGen/source/sys_vim.o
 .debug_info    0x0001b7c3     0x11fe ./HALCoGen/source/system.o

.debug_abbrev   0x00000000     0x47d4
 .debug_abbrev  0x00000000      0x141 ./rt-thread/src/clock.o
 .debug_abbrev  0x00000141      0x164 ./rt-thread/src/components.o
 .debug_abbrev  0x000002a5      0x1ae ./rt-thread/src/device.o
 .debug_abbrev  0x00000453      0x1e4 ./rt-thread/src/idle.o
 .debug_abbrev  0x00000637      0x1d0 ./rt-thread/src/ipc.o
 .debug_abbrev  0x00000807       0xdc ./rt-thread/src/irq.o
 .debug_abbrev  0x000008e3      0x2c8 ./rt-thread/src/kservice.o
 .debug_abbrev  0x00000bab      0x1ec ./rt-thread/src/mem.o
 .debug_abbrev  0x00000d97      0x1e0 ./rt-thread/src/object.o
 .debug_abbrev  0x00000f77      0x225 ./rt-thread/src/scheduler.o
 .debug_abbrev  0x0000119c      0x1fb ./rt-thread/src/thread.o
 .debug_abbrev  0x00001397      0x261 ./rt-thread/src/timer.o
 .debug_abbrev  0x000015f8       0x14 ./rt-thread/libcpu/arm/am335x/context_gcc.o
 .debug_abbrev  0x0000160c       0x56 ./rt-thread/libcpu/arm/am335x/cpu.o
 .debug_abbrev  0x00001662      0x14c ./rt-thread/libcpu/arm/am335x/interrupt.o
 .debug_abbrev  0x000017ae       0x8a ./rt-thread/libcpu/arm/am335x/stack.o
 .debug_abbrev  0x00001838       0x14 ./rt-thread/libcpu/arm/am335x/start_gcc.o
 .debug_abbrev  0x0000184c      0x112 ./rt-thread/libcpu/arm/am335x/trap.o
 .debug_abbrev  0x0000195e       0x14 ./rt-thread/libcpu/arm/am335x/vector_gcc.o
 .debug_abbrev  0x00001972      0x10a ./rt-thread/components/libc/compilers/gcc/newlib/libc.o
 .debug_abbrev  0x00001a7c      0x1c3 ./rt-thread/components/libc/compilers/gcc/newlib/stdio.o
 .debug_abbrev  0x00001c3f      0x2a5 ./rt-thread/components/libc/compilers/gcc/newlib/syscalls.o
 .debug_abbrev  0x00001ee4      0x120 ./rt-thread/components/libc/compilers/common/stdlib.o
 .debug_abbrev  0x00002004      0x293 ./rt-thread/components/finsh/cmd.o
 .debug_abbrev  0x00002297      0x252 ./rt-thread/components/finsh/msh.o
 .debug_abbrev  0x000024e9      0x28c ./rt-thread/components/finsh/msh_file.o
 .debug_abbrev  0x00002775      0x31b ./rt-thread/components/finsh/shell.o
 .debug_abbrev  0x00002a90      0x180 ./rt-thread/components/drivers/src/completion.o
 .debug_abbrev  0x00002c10      0x1ff ./rt-thread/components/drivers/src/dataqueue.o
 .debug_abbrev  0x00002e0f      0x1c5 ./rt-thread/components/drivers/src/waitqueue.o
 .debug_abbrev  0x00002fd4      0x226 ./rt-thread/components/drivers/src/workqueue.o
 .debug_abbrev  0x000031fa      0x2d7 ./rt-thread/components/drivers/serial/serial.o
 .debug_abbrev  0x000034d1      0x28e ./rt-thread/components/dfs/src/dfs.o
 .debug_abbrev  0x0000375f      0x24e ./rt-thread/components/dfs/src/dfs_file.o
 .debug_abbrev  0x000039ad      0x211 ./rt-thread/components/dfs/src/dfs_fs.o
 .debug_abbrev  0x00003bbe      0x21f ./rt-thread/components/dfs/src/dfs_posix.o
 .debug_abbrev  0x00003ddd      0x208 ./rt-thread/components/dfs/filesystems/devfs/devfs.o
 .debug_abbrev  0x00003fe5       0xd2 ./drivers/board.o
 .debug_abbrev  0x000040b7      0x1d3 ./drivers/drv_uart.o
 .debug_abbrev  0x0000428a       0x44 ./applications/main.o
 .debug_abbrev  0x000042ce      0x1b1 ./HALCoGen/source/rti.o
 .debug_abbrev  0x0000447f       0xe2 ./HALCoGen/source/sys_startup.o
 .debug_abbrev  0x00004561      0x12f ./HALCoGen/source/sys_vim.o
 .debug_abbrev  0x00004690      0x144 ./HALCoGen/source/system.o

.debug_loc      0x00000000     0x7678
 .debug_loc     0x00000000      0x124 ./rt-thread/src/clock.o
 .debug_loc     0x00000124      0x248 ./rt-thread/src/components.o
 .debug_loc     0x0000036c      0x354 ./rt-thread/src/device.o
 .debug_loc     0x000006c0      0x248 ./rt-thread/src/idle.o
 .debug_loc     0x00000908      0xaa4 ./rt-thread/src/ipc.o
 .debug_loc     0x000013ac      0x130 ./rt-thread/src/irq.o
 .debug_loc     0x000014dc      0x864 ./rt-thread/src/kservice.o
 .debug_loc     0x00001d40      0x248 ./rt-thread/src/mem.o
 .debug_loc     0x00001f88      0x418 ./rt-thread/src/object.o
 .debug_loc     0x000023a0      0x3b0 ./rt-thread/src/scheduler.o
 .debug_loc     0x00002750      0x588 ./rt-thread/src/thread.o
 .debug_loc     0x00002cd8      0x4a8 ./rt-thread/src/timer.o
 .debug_loc     0x00003180       0x70 ./rt-thread/libcpu/arm/am335x/cpu.o
 .debug_loc     0x000031f0      0x124 ./rt-thread/libcpu/arm/am335x/interrupt.o
 .debug_loc     0x00003314       0x44 ./rt-thread/libcpu/arm/am335x/stack.o
 .debug_loc     0x00003358      0x1b4 ./rt-thread/libcpu/arm/am335x/trap.o
 .debug_loc     0x0000350c       0x38 ./rt-thread/components/libc/compilers/gcc/newlib/libc.o
 .debug_loc     0x00003544       0x64 ./rt-thread/components/libc/compilers/gcc/newlib/stdio.o
 .debug_loc     0x000035a8      0x660 ./rt-thread/components/libc/compilers/gcc/newlib/syscalls.o
 .debug_loc     0x00003c08       0x70 ./rt-thread/components/libc/compilers/common/stdlib.o
 .debug_loc     0x00003c78      0x41c ./rt-thread/components/finsh/cmd.o
 .debug_loc     0x00004094      0x23c ./rt-thread/components/finsh/msh.o
 .debug_loc     0x000042d0      0x3b8 ./rt-thread/components/finsh/msh_file.o
 .debug_loc     0x00004688      0x2a8 ./rt-thread/components/finsh/shell.o
 .debug_loc     0x00004930      0x174 ./rt-thread/components/drivers/src/completion.o
 .debug_loc     0x00004aa4      0x254 ./rt-thread/components/drivers/src/dataqueue.o
 .debug_loc     0x00004cf8      0x234 ./rt-thread/components/drivers/src/waitqueue.o
 .debug_loc     0x00004f2c      0x478 ./rt-thread/components/drivers/src/workqueue.o
 .debug_loc     0x000053a4      0x5dc ./rt-thread/components/drivers/serial/serial.o
 .debug_loc     0x00005980      0x2a0 ./rt-thread/components/dfs/src/dfs.o
 .debug_loc     0x00005c20      0x428 ./rt-thread/components/dfs/src/dfs_file.o
 .debug_loc     0x00006048      0x230 ./rt-thread/components/dfs/src/dfs_fs.o
 .debug_loc     0x00006278      0x5e4 ./rt-thread/components/dfs/src/dfs_posix.o
 .debug_loc     0x0000685c      0x23c ./rt-thread/components/dfs/filesystems/devfs/devfs.o
 .debug_loc     0x00006a98       0x64 ./drivers/board.o
 .debug_loc     0x00006afc      0x174 ./drivers/drv_uart.o
 .debug_loc     0x00006c70       0x2c ./applications/main.o
 .debug_loc     0x00006c9c      0x594 ./HALCoGen/source/rti.o
 .debug_loc     0x00007230       0x70 ./HALCoGen/source/sys_startup.o
 .debug_loc     0x000072a0      0x148 ./HALCoGen/source/sys_vim.o
 .debug_loc     0x000073e8      0x290 ./HALCoGen/source/system.o

.debug_aranges  0x00000000      0x580
 .debug_aranges
                0x00000000       0x20 ./rt-thread/src/clock.o
 .debug_aranges
                0x00000020       0x20 ./rt-thread/src/components.o
 .debug_aranges
                0x00000040       0x20 ./rt-thread/src/device.o
 .debug_aranges
                0x00000060       0x20 ./rt-thread/src/idle.o
 .debug_aranges
                0x00000080       0x20 ./rt-thread/src/ipc.o
 .debug_aranges
                0x000000a0       0x20 ./rt-thread/src/irq.o
 .debug_aranges
                0x000000c0       0x20 ./rt-thread/src/kservice.o
 .debug_aranges
                0x000000e0       0x20 ./rt-thread/src/mem.o
 .debug_aranges
                0x00000100       0x20 ./rt-thread/src/object.o
 .debug_aranges
                0x00000120       0x20 ./rt-thread/src/scheduler.o
 .debug_aranges
                0x00000140       0x20 ./rt-thread/src/thread.o
 .debug_aranges
                0x00000160       0x20 ./rt-thread/src/timer.o
 .debug_aranges
                0x00000180       0x20 ./rt-thread/libcpu/arm/am335x/context_gcc.o
 .debug_aranges
                0x000001a0       0x20 ./rt-thread/libcpu/arm/am335x/cpu.o
 .debug_aranges
                0x000001c0       0x20 ./rt-thread/libcpu/arm/am335x/interrupt.o
 .debug_aranges
                0x000001e0       0x20 ./rt-thread/libcpu/arm/am335x/stack.o
 .debug_aranges
                0x00000200       0x20 ./rt-thread/libcpu/arm/am335x/start_gcc.o
 .debug_aranges
                0x00000220       0x20 ./rt-thread/libcpu/arm/am335x/trap.o
 .debug_aranges
                0x00000240       0x20 ./rt-thread/libcpu/arm/am335x/vector_gcc.o
 .debug_aranges
                0x00000260       0x20 ./rt-thread/components/libc/compilers/gcc/newlib/libc.o
 .debug_aranges
                0x00000280       0x20 ./rt-thread/components/libc/compilers/gcc/newlib/stdio.o
 .debug_aranges
                0x000002a0       0x20 ./rt-thread/components/libc/compilers/gcc/newlib/syscalls.o
 .debug_aranges
                0x000002c0       0x20 ./rt-thread/components/libc/compilers/common/stdlib.o
 .debug_aranges
                0x000002e0       0x20 ./rt-thread/components/finsh/cmd.o
 .debug_aranges
                0x00000300       0x20 ./rt-thread/components/finsh/msh.o
 .debug_aranges
                0x00000320       0x20 ./rt-thread/components/finsh/msh_file.o
 .debug_aranges
                0x00000340       0x20 ./rt-thread/components/finsh/shell.o
 .debug_aranges
                0x00000360       0x20 ./rt-thread/components/drivers/src/completion.o
 .debug_aranges
                0x00000380       0x20 ./rt-thread/components/drivers/src/dataqueue.o
 .debug_aranges
                0x000003a0       0x20 ./rt-thread/components/drivers/src/waitqueue.o
 .debug_aranges
                0x000003c0       0x20 ./rt-thread/components/drivers/src/workqueue.o
 .debug_aranges
                0x000003e0       0x20 ./rt-thread/components/drivers/serial/serial.o
 .debug_aranges
                0x00000400       0x20 ./rt-thread/components/dfs/src/dfs.o
 .debug_aranges
                0x00000420       0x20 ./rt-thread/components/dfs/src/dfs_file.o
 .debug_aranges
                0x00000440       0x20 ./rt-thread/components/dfs/src/dfs_fs.o
 .debug_aranges
                0x00000460       0x20 ./rt-thread/components/dfs/src/dfs_posix.o
 .debug_aranges
                0x00000480       0x20 ./rt-thread/components/dfs/filesystems/devfs/devfs.o
 .debug_aranges
                0x000004a0       0x20 ./drivers/board.o
 .debug_aranges
                0x000004c0       0x20 ./drivers/drv_uart.o
 .debug_aranges
                0x000004e0       0x20 ./applications/main.o
 .debug_aranges
                0x00000500       0x20 ./HALCoGen/source/rti.o
 .debug_aranges
                0x00000520       0x20 ./HALCoGen/source/sys_startup.o
 .debug_aranges
                0x00000540       0x20 ./HALCoGen/source/sys_vim.o
 .debug_aranges
                0x00000560       0x20 ./HALCoGen/source/system.o

.debug_line     0x00000000     0x7be1
 .debug_line    0x00000000       0xc7 ./rt-thread/src/clock.o
 .debug_line    0x000000c7      0x107 ./rt-thread/src/components.o
 .debug_line    0x000001ce      0x288 ./rt-thread/src/device.o
 .debug_line    0x00000456      0x180 ./rt-thread/src/idle.o
 .debug_line    0x000005d6      0x95d ./rt-thread/src/ipc.o
 .debug_line    0x00000f33       0xcd ./rt-thread/src/irq.o
 .debug_line    0x00001000      0x500 ./rt-thread/src/kservice.o
 .debug_line    0x00001500      0x28c ./rt-thread/src/mem.o
 .debug_line    0x0000178c      0x24c ./rt-thread/src/object.o
 .debug_line    0x000019d8      0x1b7 ./rt-thread/src/scheduler.o
 .debug_line    0x00001b8f      0x2bd ./rt-thread/src/thread.o
 .debug_line    0x00001e4c      0x271 ./rt-thread/src/timer.o
 .debug_line    0x000020bd       0xb2 ./rt-thread/libcpu/arm/am335x/context_gcc.o
 .debug_line    0x0000216f       0x5c ./rt-thread/libcpu/arm/am335x/cpu.o
 .debug_line    0x000021cb      0x153 ./rt-thread/libcpu/arm/am335x/interrupt.o
 .debug_line    0x0000231e       0xdb ./rt-thread/libcpu/arm/am335x/stack.o
 .debug_line    0x000023f9      0x138 ./rt-thread/libcpu/arm/am335x/start_gcc.o
 .debug_line    0x00002531      0x16a ./rt-thread/libcpu/arm/am335x/trap.o
 .debug_line    0x0000269b       0x62 ./rt-thread/libcpu/arm/am335x/vector_gcc.o
 .debug_line    0x000026fd       0xc7 ./rt-thread/components/libc/compilers/gcc/newlib/libc.o
 .debug_line    0x000027c4      0x26c ./rt-thread/components/libc/compilers/gcc/newlib/stdio.o
 .debug_line    0x00002a30      0x3b6 ./rt-thread/components/libc/compilers/gcc/newlib/syscalls.o
 .debug_line    0x00002de6       0xcc ./rt-thread/components/libc/compilers/common/stdlib.o
 .debug_line    0x00002eb2      0x3bc ./rt-thread/components/finsh/cmd.o
 .debug_line    0x0000326e      0x344 ./rt-thread/components/finsh/msh.o
 .debug_line    0x000035b2      0x6e1 ./rt-thread/components/finsh/msh_file.o
 .debug_line    0x00003c93      0x41c ./rt-thread/components/finsh/shell.o
 .debug_line    0x000040af      0x1b1 ./rt-thread/components/drivers/src/completion.o
 .debug_line    0x00004260      0x2d6 ./rt-thread/components/drivers/src/dataqueue.o
 .debug_line    0x00004536      0x1bd ./rt-thread/components/drivers/src/waitqueue.o
 .debug_line    0x000046f3      0x2c3 ./rt-thread/components/drivers/src/workqueue.o
 .debug_line    0x000049b6      0x96f ./rt-thread/components/drivers/serial/serial.o
 .debug_line    0x00005325      0x6d4 ./rt-thread/components/dfs/src/dfs.o
 .debug_line    0x000059f9      0x637 ./rt-thread/components/dfs/src/dfs_file.o
 .debug_line    0x00006030      0x64f ./rt-thread/components/dfs/src/dfs_fs.o
 .debug_line    0x0000667f      0x6b1 ./rt-thread/components/dfs/src/dfs_posix.o
 .debug_line    0x00006d30      0x5b5 ./rt-thread/components/dfs/filesystems/devfs/devfs.o
 .debug_line    0x000072e5       0xb9 ./drivers/board.o
 .debug_line    0x0000739e      0x1c9 ./drivers/drv_uart.o
 .debug_line    0x00007567       0x47 ./applications/main.o
 .debug_line    0x000075ae      0x1a2 ./HALCoGen/source/rti.o
 .debug_line    0x00007750      0x113 ./HALCoGen/source/sys_startup.o
 .debug_line    0x00007863      0x188 ./HALCoGen/source/sys_vim.o
 .debug_line    0x000079eb      0x1f6 ./HALCoGen/source/system.o

.debug_str      0x00000000     0x561e
 .debug_str     0x00000000      0x2ef ./rt-thread/src/clock.o
                                0x394 (size before relaxing)
 .debug_str     0x000002ef      0x108 ./rt-thread/src/components.o
                                0x434 (size before relaxing)
 .debug_str     0x000003f7      0x571 ./rt-thread/src/device.o
                                0x809 (size before relaxing)
 .debug_str     0x00000968      0x14c ./rt-thread/src/idle.o
                                0x482 (size before relaxing)
 .debug_str     0x00000ab4      0x48c ./rt-thread/src/ipc.o
                                0x95f (size before relaxing)
 .debug_str     0x00000f40       0xcb ./rt-thread/src/irq.o
                                0x280 (size before relaxing)
 .debug_str     0x0000100b      0x316 ./rt-thread/src/kservice.o
                                0x992 (size before relaxing)
 .debug_str     0x00001321      0x15f ./rt-thread/src/mem.o
                                0x3dd (size before relaxing)
 .debug_str     0x00001480      0x2be ./rt-thread/src/object.o
                                0x6e4 (size before relaxing)
 .debug_str     0x0000173e      0x22f ./rt-thread/src/scheduler.o
                                0x5f9 (size before relaxing)
 .debug_str     0x0000196d      0x20d ./rt-thread/src/thread.o
                                0x6fd (size before relaxing)
 .debug_str     0x00001b7a      0x1a1 ./rt-thread/src/timer.o
                                0x608 (size before relaxing)
 .debug_str     0x00001d1b       0x48 ./rt-thread/libcpu/arm/am335x/cpu.o
                                0x1dd (size before relaxing)
 .debug_str     0x00001d63      0x14e ./rt-thread/libcpu/arm/am335x/interrupt.o
                                0x329 (size before relaxing)
 .debug_str     0x00001eb1       0x3f ./rt-thread/libcpu/arm/am335x/stack.o
                                0x206 (size before relaxing)
 .debug_str     0x00001ef0      0x19c ./rt-thread/libcpu/arm/am335x/trap.o
                                0x412 (size before relaxing)
 .debug_str     0x0000208c       0x6c ./rt-thread/components/libc/compilers/gcc/newlib/libc.o
                                0x5ae (size before relaxing)
 .debug_str     0x000020f8      0x3e9 ./rt-thread/components/libc/compilers/gcc/newlib/stdio.o
                                0x60d (size before relaxing)
 .debug_str     0x000024e1      0x25f ./rt-thread/components/libc/compilers/gcc/newlib/syscalls.o
                                0x84a (size before relaxing)
 .debug_str     0x00002740       0x48 ./rt-thread/components/libc/compilers/common/stdlib.o
                                0x37c (size before relaxing)
 .debug_str     0x00002788      0x48b ./rt-thread/components/finsh/cmd.o
                                0xdff (size before relaxing)
 .debug_str     0x00002c13      0x1bc ./rt-thread/components/finsh/msh.o
                                0x43e (size before relaxing)
 .debug_str     0x00002dcf      0x45c ./rt-thread/components/finsh/msh_file.o
                                0xbe2 (size before relaxing)
 .debug_str     0x0000322b      0x1f9 ./rt-thread/components/finsh/shell.o
                                0x9db (size before relaxing)
 .debug_str     0x00003424       0x87 ./rt-thread/components/drivers/src/completion.o
                                0x408 (size before relaxing)
 .debug_str     0x000034ab      0x11e ./rt-thread/components/drivers/src/dataqueue.o
                                0x4e3 (size before relaxing)
 .debug_str     0x000035c9       0xe3 ./rt-thread/components/drivers/src/waitqueue.o
                                0x498 (size before relaxing)
 .debug_str     0x000036ac      0x221 ./rt-thread/components/drivers/src/workqueue.o
                                0x645 (size before relaxing)
 .debug_str     0x000038cd      0x3c7 ./rt-thread/components/drivers/serial/serial.o
                               0x1098 (size before relaxing)
 .debug_str     0x00003c94      0x162 ./rt-thread/components/dfs/src/dfs.o
                                0xacd (size before relaxing)
 .debug_str     0x00003df6      0x186 ./rt-thread/components/dfs/src/dfs_file.o
                                0x998 (size before relaxing)
 .debug_str     0x00003f7c      0x133 ./rt-thread/components/dfs/src/dfs_fs.o
                                0x9a6 (size before relaxing)
 .debug_str     0x000040af       0xb5 ./rt-thread/components/dfs/src/dfs_posix.o
                                0x8d6 (size before relaxing)
 .debug_str     0x00004164      0x13b ./rt-thread/components/dfs/filesystems/devfs/devfs.o
                                0xada (size before relaxing)
 .debug_str     0x0000429f       0xc5 ./drivers/board.o
                                0x2ee (size before relaxing)
 .debug_str     0x00004364      0x11d ./drivers/drv_uart.o
                                0x747 (size before relaxing)
 .debug_str     0x00004481       0x17 ./applications/main.o
                                0x1bd (size before relaxing)
 .debug_str     0x00004498      0x492 ./HALCoGen/source/rti.o
                                0x760 (size before relaxing)
 .debug_str     0x0000492a      0x2a6 ./HALCoGen/source/sys_startup.o
                                0x564 (size before relaxing)
 .debug_str     0x00004bd0      0x1b7 ./HALCoGen/source/sys_vim.o
                                0x527 (size before relaxing)
 .debug_str     0x00004d87      0x897 ./HALCoGen/source/system.o
                                0xd97 (size before relaxing)

.debug_frame    0x00000000     0x56b0
 .debug_frame   0x00000000       0xac ./rt-thread/src/clock.o
 .debug_frame   0x000000ac      0x148 ./rt-thread/src/components.o
 .debug_frame   0x000001f4      0x1f8 ./rt-thread/src/device.o
 .debug_frame   0x000003ec      0x150 ./rt-thread/src/idle.o
 .debug_frame   0x0000053c      0x654 ./rt-thread/src/ipc.o
 .debug_frame   0x00000b90       0xb0 ./rt-thread/src/irq.o
 .debug_frame   0x00000c40      0x488 ./rt-thread/src/kservice.o
 .debug_frame   0x000010c8      0x158 ./rt-thread/src/mem.o
 .debug_frame   0x00001220      0x240 ./rt-thread/src/object.o
 .debug_frame   0x00001460      0x224 ./rt-thread/src/scheduler.o
 .debug_frame   0x00001684      0x330 ./rt-thread/src/thread.o
 .debug_frame   0x000019b4      0x2ac ./rt-thread/src/timer.o
 .debug_frame   0x00001c60       0x4c ./rt-thread/libcpu/arm/am335x/cpu.o
 .debug_frame   0x00001cac       0xb4 ./rt-thread/libcpu/arm/am335x/interrupt.o
 .debug_frame   0x00001d60       0x34 ./rt-thread/libcpu/arm/am335x/stack.o
 .debug_frame   0x00001d94      0x10c ./rt-thread/libcpu/arm/am335x/trap.o
 .debug_frame   0x00001ea0       0x30 ./rt-thread/components/libc/compilers/gcc/newlib/libc.o
 .debug_frame   0x00001ed0       0x4c ./rt-thread/components/libc/compilers/gcc/newlib/stdio.o
 .debug_frame   0x00001f1c      0x368 ./rt-thread/components/libc/compilers/gcc/newlib/syscalls.o
 .debug_frame   0x00002284       0x50 ./rt-thread/components/libc/compilers/common/stdlib.o
 .debug_frame   0x000022d4      0x28c ./rt-thread/components/finsh/cmd.o
 .debug_frame   0x00002560      0x158 ./rt-thread/components/finsh/msh.o
 .debug_frame   0x000026b8      0x248 ./rt-thread/components/finsh/msh_file.o
 .debug_frame   0x00002900      0x1a8 ./rt-thread/components/finsh/shell.o
 .debug_frame   0x00002aa8       0xd0 ./rt-thread/components/drivers/src/completion.o
 .debug_frame   0x00002b78      0x158 ./rt-thread/components/drivers/src/dataqueue.o
 .debug_frame   0x00002cd0      0x134 ./rt-thread/components/drivers/src/waitqueue.o
 .debug_frame   0x00002e04      0x288 ./rt-thread/components/drivers/src/workqueue.o
 .debug_frame   0x0000308c      0x384 ./rt-thread/components/drivers/serial/serial.o
 .debug_frame   0x00003410      0x19c ./rt-thread/components/dfs/src/dfs.o
 .debug_frame   0x000035ac      0x284 ./rt-thread/components/dfs/src/dfs_file.o
 .debug_frame   0x00003830      0x168 ./rt-thread/components/dfs/src/dfs_fs.o
 .debug_frame   0x00003998      0x36c ./rt-thread/components/dfs/src/dfs_posix.o
 .debug_frame   0x00003d04      0x150 ./rt-thread/components/dfs/filesystems/devfs/devfs.o
 .debug_frame   0x00003e54       0x4c ./drivers/board.o
 .debug_frame   0x00003ea0       0xd4 ./drivers/drv_uart.o
 .debug_frame   0x00003f74       0x2c ./applications/main.o
 .debug_frame   0x00003fa0      0x2b4 ./HALCoGen/source/rti.o
 .debug_frame   0x00004254       0x4c ./HALCoGen/source/sys_startup.o
 .debug_frame   0x000042a0       0xb4 ./HALCoGen/source/sys_vim.o
 .debug_frame   0x00004354      0x150 ./HALCoGen/source/system.o
 .debug_frame   0x000044a4       0x30 d:/rt-threadstudio/repo/extract/toolchain_support_packages/arm/gnu_tools_for_arm_embedded_processors/5.4.1/bin/../lib/gcc/arm-none-eabi/5.4.1/../../../../arm-none-eabi/lib/armv7-ar/thumb/softfp\libc.a(lib_a-atoi.o)
 .debug_frame   0x000044d4       0x44 d:/rt-threadstudio/repo/extract/toolchain_support_packages/arm/gnu_tools_for_arm_embedded_processors/5.4.1/bin/../lib/gcc/arm-none-eabi/5.4.1/../../../../arm-none-eabi/lib/armv7-ar/thumb/softfp\libc.a(lib_a-fclose.o)
 .debug_frame   0x00004518       0x6c d:/rt-threadstudio/repo/extract/toolchain_support_packages/arm/gnu_tools_for_arm_embedded_processors/5.4.1/bin/../lib/gcc/arm-none-eabi/5.4.1/../../../../arm-none-eabi/lib/armv7-ar/thumb/softfp\libc.a(lib_a-fflush.o)
 .debug_frame   0x00004584       0x2c d:/rt-threadstudio/repo/extract/toolchain_support_packages/arm/gnu_tools_for_arm_embedded_processors/5.4.1/bin/../lib/gcc/arm-none-eabi/5.4.1/../../../../arm-none-eabi/lib/armv7-ar/thumb/softfp\libc.a(lib_a-fileno.o)
 .debug_frame   0x000045b0      0x124 d:/rt-threadstudio/repo/extract/toolchain_support_packages/arm/gnu_tools_for_arm_embedded_processors/5.4.1/bin/../lib/gcc/arm-none-eabi/5.4.1/../../../../arm-none-eabi/lib/armv7-ar/thumb/softfp\libc.a(lib_a-findfp.o)
 .debug_frame   0x000046d4       0x54 d:/rt-threadstudio/repo/extract/toolchain_support_packages/arm/gnu_tools_for_arm_embedded_processors/5.4.1/bin/../lib/gcc/arm-none-eabi/5.4.1/../../../../arm-none-eabi/lib/armv7-ar/thumb/softfp\libc.a(lib_a-fopen.o)
 .debug_frame   0x00004728       0x3c d:/rt-threadstudio/repo/extract/toolchain_support_packages/arm/gnu_tools_for_arm_embedded_processors/5.4.1/bin/../lib/gcc/arm-none-eabi/5.4.1/../../../../arm-none-eabi/lib/armv7-ar/thumb/softfp\libc.a(lib_a-fseek.o)
 .debug_frame   0x00004764       0x64 d:/rt-threadstudio/repo/extract/toolchain_support_packages/arm/gnu_tools_for_arm_embedded_processors/5.4.1/bin/../lib/gcc/arm-none-eabi/5.4.1/../../../../arm-none-eabi/lib/armv7-ar/thumb/softfp\libc.a(lib_a-fseeko.o)
 .debug_frame   0x000047c8       0x54 d:/rt-threadstudio/repo/extract/toolchain_support_packages/arm/gnu_tools_for_arm_embedded_processors/5.4.1/bin/../lib/gcc/arm-none-eabi/5.4.1/../../../../arm-none-eabi/lib/armv7-ar/thumb/softfp\libc.a(lib_a-fwalk.o)
 .debug_frame   0x0000481c       0x58 d:/rt-threadstudio/repo/extract/toolchain_support_packages/arm/gnu_tools_for_arm_embedded_processors/5.4.1/bin/../lib/gcc/arm-none-eabi/5.4.1/../../../../arm-none-eabi/lib/armv7-ar/thumb/softfp\libc.a(lib_a-getc.o)
 .debug_frame   0x00004874       0x68 d:/rt-threadstudio/repo/extract/toolchain_support_packages/arm/gnu_tools_for_arm_embedded_processors/5.4.1/bin/../lib/gcc/arm-none-eabi/5.4.1/../../../../arm-none-eabi/lib/armv7-ar/thumb/softfp\libc.a(lib_a-makebuf.o)
 .debug_frame   0x000048dc       0x3c d:/rt-threadstudio/repo/extract/toolchain_support_packages/arm/gnu_tools_for_arm_embedded_processors/5.4.1/bin/../lib/gcc/arm-none-eabi/5.4.1/../../../../arm-none-eabi/lib/armv7-ar/thumb/softfp\libc.a(lib_a-memcmp.o)
 .debug_frame   0x00004918       0x38 d:/rt-threadstudio/repo/extract/toolchain_support_packages/arm/gnu_tools_for_arm_embedded_processors/5.4.1/bin/../lib/gcc/arm-none-eabi/5.4.1/../../../../arm-none-eabi/lib/armv7-ar/thumb/softfp\libc.a(lib_a-memset.o)
 .debug_frame   0x00004950       0x20 d:/rt-threadstudio/repo/extract/toolchain_support_packages/arm/gnu_tools_for_arm_embedded_processors/5.4.1/bin/../lib/gcc/arm-none-eabi/5.4.1/../../../../arm-none-eabi/lib/armv7-ar/thumb/softfp\libc.a(lib_a-putenv.o)
 .debug_frame   0x00004970       0x2c d:/rt-threadstudio/repo/extract/toolchain_support_packages/arm/gnu_tools_for_arm_embedded_processors/5.4.1/bin/../lib/gcc/arm-none-eabi/5.4.1/../../../../arm-none-eabi/lib/armv7-ar/thumb/softfp\libc.a(lib_a-putenv_r.o)
 .debug_frame   0x0000499c       0x44 d:/rt-threadstudio/repo/extract/toolchain_support_packages/arm/gnu_tools_for_arm_embedded_processors/5.4.1/bin/../lib/gcc/arm-none-eabi/5.4.1/../../../../arm-none-eabi/lib/armv7-ar/thumb/softfp\libc.a(lib_a-puts.o)
 .debug_frame   0x000049e0       0x40 d:/rt-threadstudio/repo/extract/toolchain_support_packages/arm/gnu_tools_for_arm_embedded_processors/5.4.1/bin/../lib/gcc/arm-none-eabi/5.4.1/../../../../arm-none-eabi/lib/armv7-ar/thumb/softfp\libc.a(lib_a-refill.o)
 .debug_frame   0x00004a20       0x3c d:/rt-threadstudio/repo/extract/toolchain_support_packages/arm/gnu_tools_for_arm_embedded_processors/5.4.1/bin/../lib/gcc/arm-none-eabi/5.4.1/../../../../arm-none-eabi/lib/armv7-ar/thumb/softfp\libc.a(lib_a-rget.o)
 .debug_frame   0x00004a5c       0x74 d:/rt-threadstudio/repo/extract/toolchain_support_packages/arm/gnu_tools_for_arm_embedded_processors/5.4.1/bin/../lib/gcc/arm-none-eabi/5.4.1/../../../../arm-none-eabi/lib/armv7-ar/thumb/softfp\libc.a(lib_a-setenv_r.o)
 .debug_frame   0x00004ad0       0x48 d:/rt-threadstudio/repo/extract/toolchain_support_packages/arm/gnu_tools_for_arm_embedded_processors/5.4.1/bin/../lib/gcc/arm-none-eabi/5.4.1/../../../../arm-none-eabi/lib/armv7-ar/thumb/softfp\libc.a(lib_a-setvbuf.o)
 .debug_frame   0x00004b18       0xa4 d:/rt-threadstudio/repo/extract/toolchain_support_packages/arm/gnu_tools_for_arm_embedded_processors/5.4.1/bin/../lib/gcc/arm-none-eabi/5.4.1/../../../../arm-none-eabi/lib/armv7-ar/thumb/softfp\libc.a(lib_a-snprintf.o)
 .debug_frame   0x00004bbc       0x88 d:/rt-threadstudio/repo/extract/toolchain_support_packages/arm/gnu_tools_for_arm_embedded_processors/5.4.1/bin/../lib/gcc/arm-none-eabi/5.4.1/../../../../arm-none-eabi/lib/armv7-ar/thumb/softfp\libc.a(lib_a-stdio.o)
 .debug_frame   0x00004c44       0x4c d:/rt-threadstudio/repo/extract/toolchain_support_packages/arm/gnu_tools_for_arm_embedded_processors/5.4.1/bin/../lib/gcc/arm-none-eabi/5.4.1/../../../../arm-none-eabi/lib/armv7-ar/thumb/softfp\libc.a(lib_a-strchr.o)
 .debug_frame   0x00004c90       0x34 d:/rt-threadstudio/repo/extract/toolchain_support_packages/arm/gnu_tools_for_arm_embedded_processors/5.4.1/bin/../lib/gcc/arm-none-eabi/5.4.1/../../../../arm-none-eabi/lib/armv7-ar/thumb/softfp\libc.a(lib_a-strcmp.o)
 .debug_frame   0x00004cc4       0x20 d:/rt-threadstudio/repo/extract/toolchain_support_packages/arm/gnu_tools_for_arm_embedded_processors/5.4.1/bin/../lib/gcc/arm-none-eabi/5.4.1/../../../../arm-none-eabi/lib/armv7-ar/thumb/softfp\libc.a(lib_a-strcpy.o)
 .debug_frame   0x00004ce4       0x2c d:/rt-threadstudio/repo/extract/toolchain_support_packages/arm/gnu_tools_for_arm_embedded_processors/5.4.1/bin/../lib/gcc/arm-none-eabi/5.4.1/../../../../arm-none-eabi/lib/armv7-ar/thumb/softfp\libc.a(lib_a-strdup_r.o)
 .debug_frame   0x00004d10       0x20 d:/rt-threadstudio/repo/extract/toolchain_support_packages/arm/gnu_tools_for_arm_embedded_processors/5.4.1/bin/../lib/gcc/arm-none-eabi/5.4.1/../../../../arm-none-eabi/lib/armv7-ar/thumb/softfp\libc.a(lib_a-strlen-stub.o)
 .debug_frame   0x00004d30       0x48 d:/rt-threadstudio/repo/extract/toolchain_support_packages/arm/gnu_tools_for_arm_embedded_processors/5.4.1/bin/../lib/gcc/arm-none-eabi/5.4.1/../../../../arm-none-eabi/lib/armv7-ar/thumb/softfp\libc.a(lib_a-strncmp.o)
 .debug_frame   0x00004d78       0x30 d:/rt-threadstudio/repo/extract/toolchain_support_packages/arm/gnu_tools_for_arm_embedded_processors/5.4.1/bin/../lib/gcc/arm-none-eabi/5.4.1/../../../../arm-none-eabi/lib/armv7-ar/thumb/softfp\libc.a(lib_a-strncpy.o)
 .debug_frame   0x00004da8       0x34 d:/rt-threadstudio/repo/extract/toolchain_support_packages/arm/gnu_tools_for_arm_embedded_processors/5.4.1/bin/../lib/gcc/arm-none-eabi/5.4.1/../../../../arm-none-eabi/lib/armv7-ar/thumb/softfp\libc.a(lib_a-strrchr.o)
 .debug_frame   0x00004ddc       0xac d:/rt-threadstudio/repo/extract/toolchain_support_packages/arm/gnu_tools_for_arm_embedded_processors/5.4.1/bin/../lib/gcc/arm-none-eabi/5.4.1/../../../../arm-none-eabi/lib/armv7-ar/thumb/softfp\libc.a(lib_a-strstr.o)
 .debug_frame   0x00004e88       0xa4 d:/rt-threadstudio/repo/extract/toolchain_support_packages/arm/gnu_tools_for_arm_embedded_processors/5.4.1/bin/../lib/gcc/arm-none-eabi/5.4.1/../../../../arm-none-eabi/lib/armv7-ar/thumb/softfp\libc.a(lib_a-strtol.o)
 .debug_frame   0x00004f2c       0x5c d:/rt-threadstudio/repo/extract/toolchain_support_packages/arm/gnu_tools_for_arm_embedded_processors/5.4.1/bin/../lib/gcc/arm-none-eabi/5.4.1/../../../../arm-none-eabi/lib/armv7-ar/thumb/softfp\libc.a(lib_a-svfprintf.o)
 .debug_frame   0x00004f88       0x78 d:/rt-threadstudio/repo/extract/toolchain_support_packages/arm/gnu_tools_for_arm_embedded_processors/5.4.1/bin/../lib/gcc/arm-none-eabi/5.4.1/../../../../arm-none-eabi/lib/armv7-ar/thumb/softfp\libc.a(lib_a-dtoa.o)
 .debug_frame   0x00005000       0x30 d:/rt-threadstudio/repo/extract/toolchain_support_packages/arm/gnu_tools_for_arm_embedded_processors/5.4.1/bin/../lib/gcc/arm-none-eabi/5.4.1/../../../../arm-none-eabi/lib/armv7-ar/thumb/softfp\libc.a(lib_a-envlock.o)
 .debug_frame   0x00005030       0x38 d:/rt-threadstudio/repo/extract/toolchain_support_packages/arm/gnu_tools_for_arm_embedded_processors/5.4.1/bin/../lib/gcc/arm-none-eabi/5.4.1/../../../../arm-none-eabi/lib/armv7-ar/thumb/softfp\libc.a(lib_a-flags.o)
 .debug_frame   0x00005068       0x68 d:/rt-threadstudio/repo/extract/toolchain_support_packages/arm/gnu_tools_for_arm_embedded_processors/5.4.1/bin/../lib/gcc/arm-none-eabi/5.4.1/../../../../arm-none-eabi/lib/armv7-ar/thumb/softfp\libc.a(lib_a-fvwrite.o)
 .debug_frame   0x000050d0       0x50 d:/rt-threadstudio/repo/extract/toolchain_support_packages/arm/gnu_tools_for_arm_embedded_processors/5.4.1/bin/../lib/gcc/arm-none-eabi/5.4.1/../../../../arm-none-eabi/lib/armv7-ar/thumb/softfp\libc.a(lib_a-getenv_r.o)
 .debug_frame   0x00005120       0x84 d:/rt-threadstudio/repo/extract/toolchain_support_packages/arm/gnu_tools_for_arm_embedded_processors/5.4.1/bin/../lib/gcc/arm-none-eabi/5.4.1/../../../../arm-none-eabi/lib/armv7-ar/thumb/softfp\libc.a(lib_a-locale.o)
 .debug_frame   0x000051a4       0x40 d:/rt-threadstudio/repo/extract/toolchain_support_packages/arm/gnu_tools_for_arm_embedded_processors/5.4.1/bin/../lib/gcc/arm-none-eabi/5.4.1/../../../../arm-none-eabi/lib/armv7-ar/thumb/softfp\libc.a(lib_a-localeconv.o)
 .debug_frame   0x000051e4       0x30 d:/rt-threadstudio/repo/extract/toolchain_support_packages/arm/gnu_tools_for_arm_embedded_processors/5.4.1/bin/../lib/gcc/arm-none-eabi/5.4.1/../../../../arm-none-eabi/lib/armv7-ar/thumb/softfp\libc.a(lib_a-malloc.o)
 .debug_frame   0x00005214       0x4c d:/rt-threadstudio/repo/extract/toolchain_support_packages/arm/gnu_tools_for_arm_embedded_processors/5.4.1/bin/../lib/gcc/arm-none-eabi/5.4.1/../../../../arm-none-eabi/lib/armv7-ar/thumb/softfp\libc.a(lib_a-mbtowc_r.o)
 .debug_frame   0x00005260       0x34 d:/rt-threadstudio/repo/extract/toolchain_support_packages/arm/gnu_tools_for_arm_embedded_processors/5.4.1/bin/../lib/gcc/arm-none-eabi/5.4.1/../../../../arm-none-eabi/lib/armv7-ar/thumb/softfp\libc.a(lib_a-memchr-stub.o)
 .debug_frame   0x00005294       0x40 d:/rt-threadstudio/repo/extract/toolchain_support_packages/arm/gnu_tools_for_arm_embedded_processors/5.4.1/bin/../lib/gcc/arm-none-eabi/5.4.1/../../../../arm-none-eabi/lib/armv7-ar/thumb/softfp\libc.a(lib_a-memmove.o)
 .debug_frame   0x000052d4      0x25c d:/rt-threadstudio/repo/extract/toolchain_support_packages/arm/gnu_tools_for_arm_embedded_processors/5.4.1/bin/../lib/gcc/arm-none-eabi/5.4.1/../../../../arm-none-eabi/lib/armv7-ar/thumb/softfp\libc.a(lib_a-mprec.o)
 .debug_frame   0x00005530       0x78 d:/rt-threadstudio/repo/extract/toolchain_support_packages/arm/gnu_tools_for_arm_embedded_processors/5.4.1/bin/../lib/gcc/arm-none-eabi/5.4.1/../../../../arm-none-eabi/lib/armv7-ar/thumb/softfp\libc.a(lib_a-svfiprintf.o)
 .debug_frame   0x000055a8       0x3c d:/rt-threadstudio/repo/extract/toolchain_support_packages/arm/gnu_tools_for_arm_embedded_processors/5.4.1/bin/../lib/gcc/arm-none-eabi/5.4.1/../../../../arm-none-eabi/lib/armv7-ar/thumb/softfp\libc.a(lib_a-wctomb_r.o)
 .debug_frame   0x000055e4       0x2c d:/rt-threadstudio/repo/extract/toolchain_support_packages/arm/gnu_tools_for_arm_embedded_processors/5.4.1/bin/../lib/gcc/arm-none-eabi/5.4.1/../../../../arm-none-eabi/lib/armv7-ar/thumb/softfp\libc.a(lib_a-wsetup.o)
 .debug_frame   0x00005610       0x20 d:/rt-threadstudio/repo/extract/toolchain_support_packages/arm/gnu_tools_for_arm_embedded_processors/5.4.1/bin/../lib/gcc/arm-none-eabi/5.4.1/armv7-ar/thumb/softfp\libgcc.a(_udivsi3.o)
 .debug_frame   0x00005630       0x20 d:/rt-threadstudio/repo/extract/toolchain_support_packages/arm/gnu_tools_for_arm_embedded_processors/5.4.1/bin/../lib/gcc/arm-none-eabi/5.4.1/armv7-ar/thumb/softfp\libgcc.a(_divsi3.o)
 .debug_frame   0x00005650       0x2c d:/rt-threadstudio/repo/extract/toolchain_support_packages/arm/gnu_tools_for_arm_embedded_processors/5.4.1/bin/../lib/gcc/arm-none-eabi/5.4.1/armv7-ar/thumb/softfp\libgcc.a(_aeabi_uldivmod.o)
 .debug_frame   0x0000567c       0x34 d:/rt-threadstudio/repo/extract/toolchain_support_packages/arm/gnu_tools_for_arm_embedded_processors/5.4.1/bin/../lib/gcc/arm-none-eabi/5.4.1/armv7-ar/thumb/softfp\libgcc.a(_udivmoddi4.o)

.debug_ranges   0x00000000       0xa8
 .debug_ranges  0x00000000       0x30 ./rt-thread/src/scheduler.o
 .debug_ranges  0x00000030       0x18 ./rt-thread/src/timer.o
 .debug_ranges  0x00000048       0x48 ./rt-thread/components/drivers/serial/serial.o
 .debug_ranges  0x00000090       0x18 ./rt-thread/components/dfs/src/dfs.o

Cross Reference Table

Symbol                                            File
IRQ_Handler                                       ./rt-thread/libcpu/arm/am335x/context_gcc.o
                                                  ./rt-thread/libcpu/arm/am335x/vector_gcc.o
IsdwdKeySequenceCorrect                           ./HALCoGen/source/rti.o
_Balloc                                           d:/rt-threadstudio/repo/extract/toolchain_support_packages/arm/gnu_tools_for_arm_embedded_processors/5.4.1/bin/../lib/gcc/arm-none-eabi/5.4.1/../../../../arm-none-eabi/lib/armv7-ar/thumb/softfp\libc.a(lib_a-mprec.o)
                                                  d:/rt-threadstudio/repo/extract/toolchain_support_packages/arm/gnu_tools_for_arm_embedded_processors/5.4.1/bin/../lib/gcc/arm-none-eabi/5.4.1/../../../../arm-none-eabi/lib/armv7-ar/thumb/softfp\libc.a(lib_a-dtoa.o)
_Bfree                                            d:/rt-threadstudio/repo/extract/toolchain_support_packages/arm/gnu_tools_for_arm_embedded_processors/5.4.1/bin/../lib/gcc/arm-none-eabi/5.4.1/../../../../arm-none-eabi/lib/armv7-ar/thumb/softfp\libc.a(lib_a-mprec.o)
                                                  d:/rt-threadstudio/repo/extract/toolchain_support_packages/arm/gnu_tools_for_arm_embedded_processors/5.4.1/bin/../lib/gcc/arm-none-eabi/5.4.1/../../../../arm-none-eabi/lib/armv7-ar/thumb/softfp\libc.a(lib_a-dtoa.o)
_Jv_RegisterClasses                               d:/rt-threadstudio/repo/extract/toolchain_support_packages/arm/gnu_tools_for_arm_embedded_processors/5.4.1/bin/../lib/gcc/arm-none-eabi/5.4.1/armv7-ar/thumb/softfp/crtbegin.o
_PathLocale                                       d:/rt-threadstudio/repo/extract/toolchain_support_packages/arm/gnu_tools_for_arm_embedded_processors/5.4.1/bin/../lib/gcc/arm-none-eabi/5.4.1/../../../../arm-none-eabi/lib/armv7-ar/thumb/softfp\libc.a(lib_a-locale.o)
__aeabi_idiv                                      d:/rt-threadstudio/repo/extract/toolchain_support_packages/arm/gnu_tools_for_arm_embedded_processors/5.4.1/bin/../lib/gcc/arm-none-eabi/5.4.1/armv7-ar/thumb/softfp\libgcc.a(_divsi3.o)
                                                  d:/rt-threadstudio/repo/extract/toolchain_support_packages/arm/gnu_tools_for_arm_embedded_processors/5.4.1/bin/../lib/gcc/arm-none-eabi/5.4.1/../../../../arm-none-eabi/lib/armv7-ar/thumb/softfp\libc.a(lib_a-fvwrite.o)
__aeabi_idiv0                                     d:/rt-threadstudio/repo/extract/toolchain_support_packages/arm/gnu_tools_for_arm_embedded_processors/5.4.1/bin/../lib/gcc/arm-none-eabi/5.4.1/armv7-ar/thumb/softfp\libgcc.a(_dvmd_tls.o)
                                                  d:/rt-threadstudio/repo/extract/toolchain_support_packages/arm/gnu_tools_for_arm_embedded_processors/5.4.1/bin/../lib/gcc/arm-none-eabi/5.4.1/armv7-ar/thumb/softfp\libgcc.a(_divsi3.o)
                                                  d:/rt-threadstudio/repo/extract/toolchain_support_packages/arm/gnu_tools_for_arm_embedded_processors/5.4.1/bin/../lib/gcc/arm-none-eabi/5.4.1/armv7-ar/thumb/softfp\libgcc.a(_udivsi3.o)
__aeabi_idivmod                                   d:/rt-threadstudio/repo/extract/toolchain_support_packages/arm/gnu_tools_for_arm_embedded_processors/5.4.1/bin/../lib/gcc/arm-none-eabi/5.4.1/armv7-ar/thumb/softfp\libgcc.a(_divsi3.o)
                                                  ./rt-thread/components/libc/compilers/common/time.o
__aeabi_ldiv0                                     d:/rt-threadstudio/repo/extract/toolchain_support_packages/arm/gnu_tools_for_arm_embedded_processors/5.4.1/bin/../lib/gcc/arm-none-eabi/5.4.1/armv7-ar/thumb/softfp\libgcc.a(_dvmd_tls.o)
                                                  d:/rt-threadstudio/repo/extract/toolchain_support_packages/arm/gnu_tools_for_arm_embedded_processors/5.4.1/bin/../lib/gcc/arm-none-eabi/5.4.1/armv7-ar/thumb/softfp\libgcc.a(_aeabi_uldivmod.o)
__aeabi_uidiv                                     d:/rt-threadstudio/repo/extract/toolchain_support_packages/arm/gnu_tools_for_arm_embedded_processors/5.4.1/bin/../lib/gcc/arm-none-eabi/5.4.1/armv7-ar/thumb/softfp\libgcc.a(_udivsi3.o)
                                                  d:/rt-threadstudio/repo/extract/toolchain_support_packages/arm/gnu_tools_for_arm_embedded_processors/5.4.1/bin/../lib/gcc/arm-none-eabi/5.4.1/../../../../arm-none-eabi/lib/armv7-ar/thumb/softfp\libc.a(lib_a-dtoa.o)
                                                  d:/rt-threadstudio/repo/extract/toolchain_support_packages/arm/gnu_tools_for_arm_embedded_processors/5.4.1/bin/../lib/gcc/arm-none-eabi/5.4.1/../../../../arm-none-eabi/lib/armv7-ar/thumb/softfp\libc.a(lib_a-strtol.o)
                                                  ./drivers/drv_uart.o
                                                  ./rt-thread/components/finsh/cmd.o
                                                  ./rt-thread/src/mempool.o
                                                  ./rt-thread/src/ipc.o
__aeabi_uidivmod                                  d:/rt-threadstudio/repo/extract/toolchain_support_packages/arm/gnu_tools_for_arm_embedded_processors/5.4.1/bin/../lib/gcc/arm-none-eabi/5.4.1/armv7-ar/thumb/softfp\libgcc.a(_udivsi3.o)
                                                  d:/rt-threadstudio/repo/extract/toolchain_support_packages/arm/gnu_tools_for_arm_embedded_processors/5.4.1/bin/../lib/gcc/arm-none-eabi/5.4.1/../../../../arm-none-eabi/lib/armv7-ar/thumb/softfp\libc.a(lib_a-strtol.o)
                                                  ./rt-thread/components/drivers/serial/serial.o
__aeabi_uldivmod                                  d:/rt-threadstudio/repo/extract/toolchain_support_packages/arm/gnu_tools_for_arm_embedded_processors/5.4.1/bin/../lib/gcc/arm-none-eabi/5.4.1/armv7-ar/thumb/softfp\libgcc.a(_aeabi_uldivmod.o)
                                                  d:/rt-threadstudio/repo/extract/toolchain_support_packages/arm/gnu_tools_for_arm_embedded_processors/5.4.1/bin/../lib/gcc/arm-none-eabi/5.4.1/../../../../arm-none-eabi/lib/armv7-ar/thumb/softfp\libc.a(lib_a-svfiprintf.o)
                                                  d:/rt-threadstudio/repo/extract/toolchain_support_packages/arm/gnu_tools_for_arm_embedded_processors/5.4.1/bin/../lib/gcc/arm-none-eabi/5.4.1/../../../../arm-none-eabi/lib/armv7-ar/thumb/softfp\libc.a(lib_a-svfprintf.o)
__any_on                                          d:/rt-threadstudio/repo/extract/toolchain_support_packages/arm/gnu_tools_for_arm_embedded_processors/5.4.1/bin/../lib/gcc/arm-none-eabi/5.4.1/../../../../arm-none-eabi/lib/armv7-ar/thumb/softfp\libc.a(lib_a-mprec.o)
__ascii_mbtowc                                    d:/rt-threadstudio/repo/extract/toolchain_support_packages/arm/gnu_tools_for_arm_embedded_processors/5.4.1/bin/../lib/gcc/arm-none-eabi/5.4.1/../../../../arm-none-eabi/lib/armv7-ar/thumb/softfp\libc.a(lib_a-mbtowc_r.o)
                                                  d:/rt-threadstudio/repo/extract/toolchain_support_packages/arm/gnu_tools_for_arm_embedded_processors/5.4.1/bin/../lib/gcc/arm-none-eabi/5.4.1/../../../../arm-none-eabi/lib/armv7-ar/thumb/softfp\libc.a(lib_a-locale.o)
__ascii_wctomb                                    d:/rt-threadstudio/repo/extract/toolchain_support_packages/arm/gnu_tools_for_arm_embedded_processors/5.4.1/bin/../lib/gcc/arm-none-eabi/5.4.1/../../../../arm-none-eabi/lib/armv7-ar/thumb/softfp\libc.a(lib_a-wctomb_r.o)
                                                  d:/rt-threadstudio/repo/extract/toolchain_support_packages/arm/gnu_tools_for_arm_embedded_processors/5.4.1/bin/../lib/gcc/arm-none-eabi/5.4.1/../../../../arm-none-eabi/lib/armv7-ar/thumb/softfp\libc.a(lib_a-locale.o)
__b2d                                             d:/rt-threadstudio/repo/extract/toolchain_support_packages/arm/gnu_tools_for_arm_embedded_processors/5.4.1/bin/../lib/gcc/arm-none-eabi/5.4.1/../../../../arm-none-eabi/lib/armv7-ar/thumb/softfp\libc.a(lib_a-mprec.o)
__bss_end                                         ./rt-thread/libcpu/arm/am335x/start_gcc.o
__bss_end__                                       d:/rt-threadstudio/repo/extract/toolchain_support_packages/arm/gnu_tools_for_arm_embedded_processors/5.4.1/bin/../lib/gcc/arm-none-eabi/5.4.1/../../../../arm-none-eabi/lib/armv7-ar/thumb/softfp/crt0.o
__bss_start                                       ./rt-thread/libcpu/arm/am335x/start_gcc.o
__bss_start__                                     d:/rt-threadstudio/repo/extract/toolchain_support_packages/arm/gnu_tools_for_arm_embedded_processors/5.4.1/bin/../lib/gcc/arm-none-eabi/5.4.1/../../../../arm-none-eabi/lib/armv7-ar/thumb/softfp/crt0.o
__call_exitprocs                                  d:/rt-threadstudio/repo/extract/toolchain_support_packages/arm/gnu_tools_for_arm_embedded_processors/5.4.1/bin/../lib/gcc/arm-none-eabi/5.4.1/../../../../arm-none-eabi/lib/armv7-ar/thumb/softfp\libc.a(lib_a-__call_atexit.o)
                                                  d:/rt-threadstudio/repo/extract/toolchain_support_packages/arm/gnu_tools_for_arm_embedded_processors/5.4.1/bin/../lib/gcc/arm-none-eabi/5.4.1/../../../../arm-none-eabi/lib/armv7-ar/thumb/softfp\libc.a(lib_a-exit.o)
__copybits                                        d:/rt-threadstudio/repo/extract/toolchain_support_packages/arm/gnu_tools_for_arm_embedded_processors/5.4.1/bin/../lib/gcc/arm-none-eabi/5.4.1/../../../../arm-none-eabi/lib/armv7-ar/thumb/softfp\libc.a(lib_a-mprec.o)
__ctors_end__                                     ./rt-thread/libcpu/arm/am335x/start_gcc.o
__ctors_start__                                   ./rt-thread/libcpu/arm/am335x/start_gcc.o
__d2b                                             d:/rt-threadstudio/repo/extract/toolchain_support_packages/arm/gnu_tools_for_arm_embedded_processors/5.4.1/bin/../lib/gcc/arm-none-eabi/5.4.1/../../../../arm-none-eabi/lib/armv7-ar/thumb/softfp\libc.a(lib_a-mprec.o)
                                                  d:/rt-threadstudio/repo/extract/toolchain_support_packages/arm/gnu_tools_for_arm_embedded_processors/5.4.1/bin/../lib/gcc/arm-none-eabi/5.4.1/../../../../arm-none-eabi/lib/armv7-ar/thumb/softfp\libc.a(lib_a-dtoa.o)
__deregister_frame_info                           d:/rt-threadstudio/repo/extract/toolchain_support_packages/arm/gnu_tools_for_arm_embedded_processors/5.4.1/bin/../lib/gcc/arm-none-eabi/5.4.1/armv7-ar/thumb/softfp/crtbegin.o
__div0                                            ./rt-thread/libcpu/arm/common/div0.o
__divsi3                                          d:/rt-threadstudio/repo/extract/toolchain_support_packages/arm/gnu_tools_for_arm_embedded_processors/5.4.1/bin/../lib/gcc/arm-none-eabi/5.4.1/armv7-ar/thumb/softfp\libgcc.a(_divsi3.o)
__dso_handle                                      d:/rt-threadstudio/repo/extract/toolchain_support_packages/arm/gnu_tools_for_arm_embedded_processors/5.4.1/bin/../lib/gcc/arm-none-eabi/5.4.1/armv7-ar/thumb/softfp/crtbegin.o
__env_lock                                        d:/rt-threadstudio/repo/extract/toolchain_support_packages/arm/gnu_tools_for_arm_embedded_processors/5.4.1/bin/../lib/gcc/arm-none-eabi/5.4.1/../../../../arm-none-eabi/lib/armv7-ar/thumb/softfp\libc.a(lib_a-envlock.o)
                                                  d:/rt-threadstudio/repo/extract/toolchain_support_packages/arm/gnu_tools_for_arm_embedded_processors/5.4.1/bin/../lib/gcc/arm-none-eabi/5.4.1/../../../../arm-none-eabi/lib/armv7-ar/thumb/softfp\libc.a(lib_a-getenv_r.o)
                                                  d:/rt-threadstudio/repo/extract/toolchain_support_packages/arm/gnu_tools_for_arm_embedded_processors/5.4.1/bin/../lib/gcc/arm-none-eabi/5.4.1/../../../../arm-none-eabi/lib/armv7-ar/thumb/softfp\libc.a(lib_a-setenv_r.o)
__env_unlock                                      d:/rt-threadstudio/repo/extract/toolchain_support_packages/arm/gnu_tools_for_arm_embedded_processors/5.4.1/bin/../lib/gcc/arm-none-eabi/5.4.1/../../../../arm-none-eabi/lib/armv7-ar/thumb/softfp\libc.a(lib_a-envlock.o)
                                                  d:/rt-threadstudio/repo/extract/toolchain_support_packages/arm/gnu_tools_for_arm_embedded_processors/5.4.1/bin/../lib/gcc/arm-none-eabi/5.4.1/../../../../arm-none-eabi/lib/armv7-ar/thumb/softfp\libc.a(lib_a-getenv_r.o)
                                                  d:/rt-threadstudio/repo/extract/toolchain_support_packages/arm/gnu_tools_for_arm_embedded_processors/5.4.1/bin/../lib/gcc/arm-none-eabi/5.4.1/../../../../arm-none-eabi/lib/armv7-ar/thumb/softfp\libc.a(lib_a-setenv_r.o)
__errno                                           ./rt-thread/components/libc/compilers/gcc/newlib/syscalls.o
                                                  d:/rt-threadstudio/repo/extract/toolchain_support_packages/arm/gnu_tools_for_arm_embedded_processors/5.4.1/bin/../lib/gcc/arm-none-eabi/5.4.1/../../../../arm-none-eabi/lib/armv7-ar/thumb/softfp\libc.a(lib_a-setenv_r.o)
__fini_array_end                                  d:/rt-threadstudio/repo/extract/toolchain_support_packages/arm/gnu_tools_for_arm_embedded_processors/5.4.1/bin/../lib/gcc/arm-none-eabi/5.4.1/../../../../arm-none-eabi/lib/armv7-ar/thumb/softfp\libc.a(lib_a-fini.o)
__fini_array_start                                d:/rt-threadstudio/repo/extract/toolchain_support_packages/arm/gnu_tools_for_arm_embedded_processors/5.4.1/bin/../lib/gcc/arm-none-eabi/5.4.1/../../../../arm-none-eabi/lib/armv7-ar/thumb/softfp\libc.a(lib_a-fini.o)
__fp_lock_all                                     d:/rt-threadstudio/repo/extract/toolchain_support_packages/arm/gnu_tools_for_arm_embedded_processors/5.4.1/bin/../lib/gcc/arm-none-eabi/5.4.1/../../../../arm-none-eabi/lib/armv7-ar/thumb/softfp\libc.a(lib_a-findfp.o)
__fp_unlock_all                                   d:/rt-threadstudio/repo/extract/toolchain_support_packages/arm/gnu_tools_for_arm_embedded_processors/5.4.1/bin/../lib/gcc/arm-none-eabi/5.4.1/../../../../arm-none-eabi/lib/armv7-ar/thumb/softfp\libc.a(lib_a-findfp.o)
__fsym_cat                                        ./rt-thread/components/finsh/msh_file.o
__fsym_cat_desc                                   ./rt-thread/components/finsh/msh_file.o
__fsym_cat_name                                   ./rt-thread/components/finsh/msh_file.o
__fsym_cd                                         ./rt-thread/components/finsh/msh_file.o
__fsym_cd_desc                                    ./rt-thread/components/finsh/msh_file.o
__fsym_cd_name                                    ./rt-thread/components/finsh/msh_file.o
__fsym_clear                                      ./rt-thread/components/finsh/cmd.o
__fsym_clear_desc                                 ./rt-thread/components/finsh/cmd.o
__fsym_clear_name                                 ./rt-thread/components/finsh/cmd.o
__fsym_cp                                         ./rt-thread/components/finsh/msh_file.o
__fsym_cp_desc                                    ./rt-thread/components/finsh/msh_file.o
__fsym_cp_name                                    ./rt-thread/components/finsh/msh_file.o
__fsym_df                                         ./rt-thread/components/finsh/msh_file.o
__fsym_df_desc                                    ./rt-thread/components/finsh/msh_file.o
__fsym_df_name                                    ./rt-thread/components/finsh/msh_file.o
__fsym_echo                                       ./rt-thread/components/finsh/msh_file.o
__fsym_echo_desc                                  ./rt-thread/components/finsh/msh_file.o
__fsym_echo_name                                  ./rt-thread/components/finsh/msh_file.o
__fsym_free                                       ./rt-thread/components/finsh/msh.o
__fsym_free_desc                                  ./rt-thread/components/finsh/msh.o
__fsym_free_name                                  ./rt-thread/components/finsh/msh.o
__fsym_hello                                      ./rt-thread/components/finsh/cmd.o
__fsym_hello_desc                                 ./rt-thread/components/finsh/cmd.o
__fsym_hello_name                                 ./rt-thread/components/finsh/cmd.o
__fsym_help                                       ./rt-thread/components/finsh/msh.o
__fsym_help_desc                                  ./rt-thread/components/finsh/msh.o
__fsym_help_name                                  ./rt-thread/components/finsh/msh.o
__fsym_list                                       ./rt-thread/components/finsh/cmd.o
__fsym_list_desc                                  ./rt-thread/components/finsh/cmd.o
__fsym_list_device                                ./rt-thread/components/finsh/cmd.o
__fsym_list_device_desc                           ./rt-thread/components/finsh/cmd.o
__fsym_list_device_name                           ./rt-thread/components/finsh/cmd.o
__fsym_list_event                                 ./rt-thread/components/finsh/cmd.o
__fsym_list_event_desc                            ./rt-thread/components/finsh/cmd.o
__fsym_list_event_name                            ./rt-thread/components/finsh/cmd.o
__fsym_list_fd                                    ./rt-thread/components/dfs/src/dfs.o
__fsym_list_fd_desc                               ./rt-thread/components/dfs/src/dfs.o
__fsym_list_fd_name                               ./rt-thread/components/dfs/src/dfs.o
__fsym_list_mailbox                               ./rt-thread/components/finsh/cmd.o
__fsym_list_mailbox_desc                          ./rt-thread/components/finsh/cmd.o
__fsym_list_mailbox_name                          ./rt-thread/components/finsh/cmd.o
__fsym_list_mempool                               ./rt-thread/components/finsh/cmd.o
__fsym_list_mempool_desc                          ./rt-thread/components/finsh/cmd.o
__fsym_list_mempool_name                          ./rt-thread/components/finsh/cmd.o
__fsym_list_msgqueue                              ./rt-thread/components/finsh/cmd.o
__fsym_list_msgqueue_desc                         ./rt-thread/components/finsh/cmd.o
__fsym_list_msgqueue_name                         ./rt-thread/components/finsh/cmd.o
__fsym_list_mutex                                 ./rt-thread/components/finsh/cmd.o
__fsym_list_mutex_desc                            ./rt-thread/components/finsh/cmd.o
__fsym_list_mutex_name                            ./rt-thread/components/finsh/cmd.o
__fsym_list_name                                  ./rt-thread/components/finsh/cmd.o
__fsym_list_sem                                   ./rt-thread/components/finsh/cmd.o
__fsym_list_sem_desc                              ./rt-thread/components/finsh/cmd.o
__fsym_list_sem_name                              ./rt-thread/components/finsh/cmd.o
__fsym_list_thread                                ./rt-thread/components/finsh/cmd.o
__fsym_list_thread_desc                           ./rt-thread/components/finsh/cmd.o
__fsym_list_thread_name                           ./rt-thread/components/finsh/cmd.o
__fsym_list_timer                                 ./rt-thread/components/finsh/cmd.o
__fsym_list_timer_desc                            ./rt-thread/components/finsh/cmd.o
__fsym_list_timer_name                            ./rt-thread/components/finsh/cmd.o
__fsym_ls                                         ./rt-thread/components/finsh/msh_file.o
__fsym_ls_desc                                    ./rt-thread/components/finsh/msh_file.o
__fsym_ls_name                                    ./rt-thread/components/finsh/msh_file.o
__fsym_mkdir                                      ./rt-thread/components/finsh/msh_file.o
__fsym_mkdir_desc                                 ./rt-thread/components/finsh/msh_file.o
__fsym_mkdir_name                                 ./rt-thread/components/finsh/msh_file.o
__fsym_mkfs                                       ./rt-thread/components/finsh/msh_file.o
__fsym_mkfs_desc                                  ./rt-thread/components/finsh/msh_file.o
__fsym_mkfs_name                                  ./rt-thread/components/finsh/msh_file.o
__fsym_mount                                      ./rt-thread/components/finsh/msh_file.o
__fsym_mount_desc                                 ./rt-thread/components/finsh/msh_file.o
__fsym_mount_name                                 ./rt-thread/components/finsh/msh_file.o
__fsym_mv                                         ./rt-thread/components/finsh/msh_file.o
__fsym_mv_desc                                    ./rt-thread/components/finsh/msh_file.o
__fsym_mv_name                                    ./rt-thread/components/finsh/msh_file.o
__fsym_ps                                         ./rt-thread/components/finsh/msh.o
__fsym_ps_desc                                    ./rt-thread/components/finsh/msh.o
__fsym_ps_name                                    ./rt-thread/components/finsh/msh.o
__fsym_pwd                                        ./rt-thread/components/finsh/msh_file.o
__fsym_pwd_desc                                   ./rt-thread/components/finsh/msh_file.o
__fsym_pwd_name                                   ./rt-thread/components/finsh/msh_file.o
__fsym_rm                                         ./rt-thread/components/finsh/msh_file.o
__fsym_rm_desc                                    ./rt-thread/components/finsh/msh_file.o
__fsym_rm_name                                    ./rt-thread/components/finsh/msh_file.o
__fsym_tail                                       ./rt-thread/components/finsh/msh_file.o
__fsym_tail_desc                                  ./rt-thread/components/finsh/msh_file.o
__fsym_tail_name                                  ./rt-thread/components/finsh/msh_file.o
__fsym_umount                                     ./rt-thread/components/finsh/msh_file.o
__fsym_umount_desc                                ./rt-thread/components/finsh/msh_file.o
__fsym_umount_name                                ./rt-thread/components/finsh/msh_file.o
__fsym_version                                    ./rt-thread/components/finsh/cmd.o
__fsym_version_desc                               ./rt-thread/components/finsh/cmd.o
__fsym_version_name                               ./rt-thread/components/finsh/cmd.o
__fsymtab_end                                     ./rt-thread/components/finsh/shell.o
__fsymtab_start                                   ./rt-thread/components/finsh/shell.o
__global_locale                                   d:/rt-threadstudio/repo/extract/toolchain_support_packages/arm/gnu_tools_for_arm_embedded_processors/5.4.1/bin/../lib/gcc/arm-none-eabi/5.4.1/../../../../arm-none-eabi/lib/armv7-ar/thumb/softfp\libc.a(lib_a-locale.o)
                                                  d:/rt-threadstudio/repo/extract/toolchain_support_packages/arm/gnu_tools_for_arm_embedded_processors/5.4.1/bin/../lib/gcc/arm-none-eabi/5.4.1/../../../../arm-none-eabi/lib/armv7-ar/thumb/softfp\libc.a(lib_a-wctomb_r.o)
                                                  d:/rt-threadstudio/repo/extract/toolchain_support_packages/arm/gnu_tools_for_arm_embedded_processors/5.4.1/bin/../lib/gcc/arm-none-eabi/5.4.1/../../../../arm-none-eabi/lib/armv7-ar/thumb/softfp\libc.a(lib_a-mbtowc_r.o)
                                                  d:/rt-threadstudio/repo/extract/toolchain_support_packages/arm/gnu_tools_for_arm_embedded_processors/5.4.1/bin/../lib/gcc/arm-none-eabi/5.4.1/../../../../arm-none-eabi/lib/armv7-ar/thumb/softfp\libc.a(lib_a-localeconv.o)
                                                  d:/rt-threadstudio/repo/extract/toolchain_support_packages/arm/gnu_tools_for_arm_embedded_processors/5.4.1/bin/../lib/gcc/arm-none-eabi/5.4.1/../../../../arm-none-eabi/lib/armv7-ar/thumb/softfp\libc.a(lib_a-strtol.o)
__hi0bits                                         d:/rt-threadstudio/repo/extract/toolchain_support_packages/arm/gnu_tools_for_arm_embedded_processors/5.4.1/bin/../lib/gcc/arm-none-eabi/5.4.1/../../../../arm-none-eabi/lib/armv7-ar/thumb/softfp\libc.a(lib_a-mprec.o)
                                                  d:/rt-threadstudio/repo/extract/toolchain_support_packages/arm/gnu_tools_for_arm_embedded_processors/5.4.1/bin/../lib/gcc/arm-none-eabi/5.4.1/../../../../arm-none-eabi/lib/armv7-ar/thumb/softfp\libc.a(lib_a-dtoa.o)
__i2b                                             d:/rt-threadstudio/repo/extract/toolchain_support_packages/arm/gnu_tools_for_arm_embedded_processors/5.4.1/bin/../lib/gcc/arm-none-eabi/5.4.1/../../../../arm-none-eabi/lib/armv7-ar/thumb/softfp\libc.a(lib_a-mprec.o)
                                                  d:/rt-threadstudio/repo/extract/toolchain_support_packages/arm/gnu_tools_for_arm_embedded_processors/5.4.1/bin/../lib/gcc/arm-none-eabi/5.4.1/../../../../arm-none-eabi/lib/armv7-ar/thumb/softfp\libc.a(lib_a-dtoa.o)
__libc_fini                                       d:/rt-threadstudio/repo/extract/toolchain_support_packages/arm/gnu_tools_for_arm_embedded_processors/5.4.1/bin/../lib/gcc/arm-none-eabi/5.4.1/../../../../arm-none-eabi/lib/armv7-ar/thumb/softfp\libc.a(lib_a-__call_atexit.o)
__libc_fini_array                                 d:/rt-threadstudio/repo/extract/toolchain_support_packages/arm/gnu_tools_for_arm_embedded_processors/5.4.1/bin/../lib/gcc/arm-none-eabi/5.4.1/../../../../arm-none-eabi/lib/armv7-ar/thumb/softfp\libc.a(lib_a-fini.o)
                                                  d:/rt-threadstudio/repo/extract/toolchain_support_packages/arm/gnu_tools_for_arm_embedded_processors/5.4.1/bin/../lib/gcc/arm-none-eabi/5.4.1/../../../../arm-none-eabi/lib/armv7-ar/thumb/softfp\libc.a(lib_a-__call_atexit.o)
                                                  d:/rt-threadstudio/repo/extract/toolchain_support_packages/arm/gnu_tools_for_arm_embedded_processors/5.4.1/bin/../lib/gcc/arm-none-eabi/5.4.1/../../../../arm-none-eabi/lib/armv7-ar/thumb/softfp/crt0.o
__libc_init_array                                 ./rt-thread/components/libc/compilers/gcc/newlib/syscalls.o
                                                  d:/rt-threadstudio/repo/extract/toolchain_support_packages/arm/gnu_tools_for_arm_embedded_processors/5.4.1/bin/../lib/gcc/arm-none-eabi/5.4.1/../../../../arm-none-eabi/lib/armv7-ar/thumb/softfp/crt0.o
__lo0bits                                         d:/rt-threadstudio/repo/extract/toolchain_support_packages/arm/gnu_tools_for_arm_embedded_processors/5.4.1/bin/../lib/gcc/arm-none-eabi/5.4.1/../../../../arm-none-eabi/lib/armv7-ar/thumb/softfp\libc.a(lib_a-mprec.o)
__locale_ctype_ptr                                d:/rt-threadstudio/repo/extract/toolchain_support_packages/arm/gnu_tools_for_arm_embedded_processors/5.4.1/bin/../lib/gcc/arm-none-eabi/5.4.1/../../../../arm-none-eabi/lib/armv7-ar/thumb/softfp\libc.a(lib_a-locale.o)
__locale_ctype_ptr_l                              d:/rt-threadstudio/repo/extract/toolchain_support_packages/arm/gnu_tools_for_arm_embedded_processors/5.4.1/bin/../lib/gcc/arm-none-eabi/5.4.1/../../../../arm-none-eabi/lib/armv7-ar/thumb/softfp\libc.a(lib_a-locale.o)
                                                  d:/rt-threadstudio/repo/extract/toolchain_support_packages/arm/gnu_tools_for_arm_embedded_processors/5.4.1/bin/../lib/gcc/arm-none-eabi/5.4.1/../../../../arm-none-eabi/lib/armv7-ar/thumb/softfp\libc.a(lib_a-strtol.o)
__locale_mb_cur_max                               d:/rt-threadstudio/repo/extract/toolchain_support_packages/arm/gnu_tools_for_arm_embedded_processors/5.4.1/bin/../lib/gcc/arm-none-eabi/5.4.1/../../../../arm-none-eabi/lib/armv7-ar/thumb/softfp\libc.a(lib_a-locale.o)
__localeconv_l                                    d:/rt-threadstudio/repo/extract/toolchain_support_packages/arm/gnu_tools_for_arm_embedded_processors/5.4.1/bin/../lib/gcc/arm-none-eabi/5.4.1/../../../../arm-none-eabi/lib/armv7-ar/thumb/softfp\libc.a(lib_a-localeconv.o)
__lowest_bit_bitmap                               ./rt-thread/src/kservice.o
__lshift                                          d:/rt-threadstudio/repo/extract/toolchain_support_packages/arm/gnu_tools_for_arm_embedded_processors/5.4.1/bin/../lib/gcc/arm-none-eabi/5.4.1/../../../../arm-none-eabi/lib/armv7-ar/thumb/softfp\libc.a(lib_a-mprec.o)
                                                  d:/rt-threadstudio/repo/extract/toolchain_support_packages/arm/gnu_tools_for_arm_embedded_processors/5.4.1/bin/../lib/gcc/arm-none-eabi/5.4.1/../../../../arm-none-eabi/lib/armv7-ar/thumb/softfp\libc.a(lib_a-dtoa.o)
__mcmp                                            d:/rt-threadstudio/repo/extract/toolchain_support_packages/arm/gnu_tools_for_arm_embedded_processors/5.4.1/bin/../lib/gcc/arm-none-eabi/5.4.1/../../../../arm-none-eabi/lib/armv7-ar/thumb/softfp\libc.a(lib_a-mprec.o)
                                                  d:/rt-threadstudio/repo/extract/toolchain_support_packages/arm/gnu_tools_for_arm_embedded_processors/5.4.1/bin/../lib/gcc/arm-none-eabi/5.4.1/../../../../arm-none-eabi/lib/armv7-ar/thumb/softfp\libc.a(lib_a-dtoa.o)
__mdiff                                           d:/rt-threadstudio/repo/extract/toolchain_support_packages/arm/gnu_tools_for_arm_embedded_processors/5.4.1/bin/../lib/gcc/arm-none-eabi/5.4.1/../../../../arm-none-eabi/lib/armv7-ar/thumb/softfp\libc.a(lib_a-mprec.o)
                                                  d:/rt-threadstudio/repo/extract/toolchain_support_packages/arm/gnu_tools_for_arm_embedded_processors/5.4.1/bin/../lib/gcc/arm-none-eabi/5.4.1/../../../../arm-none-eabi/lib/armv7-ar/thumb/softfp\libc.a(lib_a-dtoa.o)
__mprec_bigtens                                   d:/rt-threadstudio/repo/extract/toolchain_support_packages/arm/gnu_tools_for_arm_embedded_processors/5.4.1/bin/../lib/gcc/arm-none-eabi/5.4.1/../../../../arm-none-eabi/lib/armv7-ar/thumb/softfp\libc.a(lib_a-mprec.o)
                                                  d:/rt-threadstudio/repo/extract/toolchain_support_packages/arm/gnu_tools_for_arm_embedded_processors/5.4.1/bin/../lib/gcc/arm-none-eabi/5.4.1/../../../../arm-none-eabi/lib/armv7-ar/thumb/softfp\libc.a(lib_a-dtoa.o)
__mprec_tens                                      d:/rt-threadstudio/repo/extract/toolchain_support_packages/arm/gnu_tools_for_arm_embedded_processors/5.4.1/bin/../lib/gcc/arm-none-eabi/5.4.1/../../../../arm-none-eabi/lib/armv7-ar/thumb/softfp\libc.a(lib_a-mprec.o)
                                                  d:/rt-threadstudio/repo/extract/toolchain_support_packages/arm/gnu_tools_for_arm_embedded_processors/5.4.1/bin/../lib/gcc/arm-none-eabi/5.4.1/../../../../arm-none-eabi/lib/armv7-ar/thumb/softfp\libc.a(lib_a-dtoa.o)
__mprec_tinytens                                  d:/rt-threadstudio/repo/extract/toolchain_support_packages/arm/gnu_tools_for_arm_embedded_processors/5.4.1/bin/../lib/gcc/arm-none-eabi/5.4.1/../../../../arm-none-eabi/lib/armv7-ar/thumb/softfp\libc.a(lib_a-mprec.o)
__multadd                                         d:/rt-threadstudio/repo/extract/toolchain_support_packages/arm/gnu_tools_for_arm_embedded_processors/5.4.1/bin/../lib/gcc/arm-none-eabi/5.4.1/../../../../arm-none-eabi/lib/armv7-ar/thumb/softfp\libc.a(lib_a-mprec.o)
                                                  d:/rt-threadstudio/repo/extract/toolchain_support_packages/arm/gnu_tools_for_arm_embedded_processors/5.4.1/bin/../lib/gcc/arm-none-eabi/5.4.1/../../../../arm-none-eabi/lib/armv7-ar/thumb/softfp\libc.a(lib_a-dtoa.o)
__multiply                                        d:/rt-threadstudio/repo/extract/toolchain_support_packages/arm/gnu_tools_for_arm_embedded_processors/5.4.1/bin/../lib/gcc/arm-none-eabi/5.4.1/../../../../arm-none-eabi/lib/armv7-ar/thumb/softfp\libc.a(lib_a-mprec.o)
                                                  d:/rt-threadstudio/repo/extract/toolchain_support_packages/arm/gnu_tools_for_arm_embedded_processors/5.4.1/bin/../lib/gcc/arm-none-eabi/5.4.1/../../../../arm-none-eabi/lib/armv7-ar/thumb/softfp\libc.a(lib_a-dtoa.o)
__pow5mult                                        d:/rt-threadstudio/repo/extract/toolchain_support_packages/arm/gnu_tools_for_arm_embedded_processors/5.4.1/bin/../lib/gcc/arm-none-eabi/5.4.1/../../../../arm-none-eabi/lib/armv7-ar/thumb/softfp\libc.a(lib_a-mprec.o)
                                                  d:/rt-threadstudio/repo/extract/toolchain_support_packages/arm/gnu_tools_for_arm_embedded_processors/5.4.1/bin/../lib/gcc/arm-none-eabi/5.4.1/../../../../arm-none-eabi/lib/armv7-ar/thumb/softfp\libc.a(lib_a-dtoa.o)
__ratio                                           d:/rt-threadstudio/repo/extract/toolchain_support_packages/arm/gnu_tools_for_arm_embedded_processors/5.4.1/bin/../lib/gcc/arm-none-eabi/5.4.1/../../../../arm-none-eabi/lib/armv7-ar/thumb/softfp\libc.a(lib_a-mprec.o)
__register_exitproc                               d:/rt-threadstudio/repo/extract/toolchain_support_packages/arm/gnu_tools_for_arm_embedded_processors/5.4.1/bin/../lib/gcc/arm-none-eabi/5.4.1/../../../../arm-none-eabi/lib/armv7-ar/thumb/softfp\libc.a(lib_a-__atexit.o)
                                                  d:/rt-threadstudio/repo/extract/toolchain_support_packages/arm/gnu_tools_for_arm_embedded_processors/5.4.1/bin/../lib/gcc/arm-none-eabi/5.4.1/../../../../arm-none-eabi/lib/armv7-ar/thumb/softfp\libc.a(lib_a-atexit.o)
__register_frame_info                             d:/rt-threadstudio/repo/extract/toolchain_support_packages/arm/gnu_tools_for_arm_embedded_processors/5.4.1/bin/../lib/gcc/arm-none-eabi/5.4.1/armv7-ar/thumb/softfp/crtbegin.o
__rt_ffs                                          ./rt-thread/src/kservice.o
                                                  ./rt-thread/src/scheduler.o
__rt_init_dfs_init                                ./rt-thread/components/dfs/src/dfs.o
__rt_init_finsh_system_init                       ./rt-thread/components/finsh/shell.o
__rt_init_libc_system_init                        ./rt-thread/components/libc/compilers/gcc/newlib/libc.o
__rt_init_rt_work_sys_workqueue_init              ./rt-thread/components/drivers/src/workqueue.o
__rt_init_rti_board_end                           ./rt-thread/src/components.o
__rt_init_rti_board_start                         ./rt-thread/src/components.o
__rt_init_rti_end                                 ./rt-thread/src/components.o
__rt_init_rti_start                               ./rt-thread/src/components.o
__rt_libc_exit                                    ./rt-thread/components/libc/compilers/common/stdlib.o
                                                  ./rt-thread/components/libc/compilers/gcc/newlib/syscalls.o
__s2b                                             d:/rt-threadstudio/repo/extract/toolchain_support_packages/arm/gnu_tools_for_arm_embedded_processors/5.4.1/bin/../lib/gcc/arm-none-eabi/5.4.1/../../../../arm-none-eabi/lib/armv7-ar/thumb/softfp\libc.a(lib_a-mprec.o)
__sclose                                          d:/rt-threadstudio/repo/extract/toolchain_support_packages/arm/gnu_tools_for_arm_embedded_processors/5.4.1/bin/../lib/gcc/arm-none-eabi/5.4.1/../../../../arm-none-eabi/lib/armv7-ar/thumb/softfp\libc.a(lib_a-stdio.o)
                                                  d:/rt-threadstudio/repo/extract/toolchain_support_packages/arm/gnu_tools_for_arm_embedded_processors/5.4.1/bin/../lib/gcc/arm-none-eabi/5.4.1/../../../../arm-none-eabi/lib/armv7-ar/thumb/softfp\libc.a(lib_a-fopen.o)
                                                  d:/rt-threadstudio/repo/extract/toolchain_support_packages/arm/gnu_tools_for_arm_embedded_processors/5.4.1/bin/../lib/gcc/arm-none-eabi/5.4.1/../../../../arm-none-eabi/lib/armv7-ar/thumb/softfp\libc.a(lib_a-findfp.o)
__seofread                                        d:/rt-threadstudio/repo/extract/toolchain_support_packages/arm/gnu_tools_for_arm_embedded_processors/5.4.1/bin/../lib/gcc/arm-none-eabi/5.4.1/../../../../arm-none-eabi/lib/armv7-ar/thumb/softfp\libc.a(lib_a-stdio.o)
__sflags                                          d:/rt-threadstudio/repo/extract/toolchain_support_packages/arm/gnu_tools_for_arm_embedded_processors/5.4.1/bin/../lib/gcc/arm-none-eabi/5.4.1/../../../../arm-none-eabi/lib/armv7-ar/thumb/softfp\libc.a(lib_a-flags.o)
                                                  d:/rt-threadstudio/repo/extract/toolchain_support_packages/arm/gnu_tools_for_arm_embedded_processors/5.4.1/bin/../lib/gcc/arm-none-eabi/5.4.1/../../../../arm-none-eabi/lib/armv7-ar/thumb/softfp\libc.a(lib_a-fopen.o)
__sflush_r                                        d:/rt-threadstudio/repo/extract/toolchain_support_packages/arm/gnu_tools_for_arm_embedded_processors/5.4.1/bin/../lib/gcc/arm-none-eabi/5.4.1/../../../../arm-none-eabi/lib/armv7-ar/thumb/softfp\libc.a(lib_a-fflush.o)
                                                  d:/rt-threadstudio/repo/extract/toolchain_support_packages/arm/gnu_tools_for_arm_embedded_processors/5.4.1/bin/../lib/gcc/arm-none-eabi/5.4.1/../../../../arm-none-eabi/lib/armv7-ar/thumb/softfp\libc.a(lib_a-refill.o)
                                                  d:/rt-threadstudio/repo/extract/toolchain_support_packages/arm/gnu_tools_for_arm_embedded_processors/5.4.1/bin/../lib/gcc/arm-none-eabi/5.4.1/../../../../arm-none-eabi/lib/armv7-ar/thumb/softfp\libc.a(lib_a-fclose.o)
__sfmoreglue                                      d:/rt-threadstudio/repo/extract/toolchain_support_packages/arm/gnu_tools_for_arm_embedded_processors/5.4.1/bin/../lib/gcc/arm-none-eabi/5.4.1/../../../../arm-none-eabi/lib/armv7-ar/thumb/softfp\libc.a(lib_a-findfp.o)
__sfp                                             d:/rt-threadstudio/repo/extract/toolchain_support_packages/arm/gnu_tools_for_arm_embedded_processors/5.4.1/bin/../lib/gcc/arm-none-eabi/5.4.1/../../../../arm-none-eabi/lib/armv7-ar/thumb/softfp\libc.a(lib_a-findfp.o)
                                                  d:/rt-threadstudio/repo/extract/toolchain_support_packages/arm/gnu_tools_for_arm_embedded_processors/5.4.1/bin/../lib/gcc/arm-none-eabi/5.4.1/../../../../arm-none-eabi/lib/armv7-ar/thumb/softfp\libc.a(lib_a-fopen.o)
__sfp_lock_acquire                                d:/rt-threadstudio/repo/extract/toolchain_support_packages/arm/gnu_tools_for_arm_embedded_processors/5.4.1/bin/../lib/gcc/arm-none-eabi/5.4.1/../../../../arm-none-eabi/lib/armv7-ar/thumb/softfp\libc.a(lib_a-findfp.o)
                                                  d:/rt-threadstudio/repo/extract/toolchain_support_packages/arm/gnu_tools_for_arm_embedded_processors/5.4.1/bin/../lib/gcc/arm-none-eabi/5.4.1/../../../../arm-none-eabi/lib/armv7-ar/thumb/softfp\libc.a(lib_a-fopen.o)
                                                  d:/rt-threadstudio/repo/extract/toolchain_support_packages/arm/gnu_tools_for_arm_embedded_processors/5.4.1/bin/../lib/gcc/arm-none-eabi/5.4.1/../../../../arm-none-eabi/lib/armv7-ar/thumb/softfp\libc.a(lib_a-fclose.o)
__sfp_lock_release                                d:/rt-threadstudio/repo/extract/toolchain_support_packages/arm/gnu_tools_for_arm_embedded_processors/5.4.1/bin/../lib/gcc/arm-none-eabi/5.4.1/../../../../arm-none-eabi/lib/armv7-ar/thumb/softfp\libc.a(lib_a-findfp.o)
                                                  d:/rt-threadstudio/repo/extract/toolchain_support_packages/arm/gnu_tools_for_arm_embedded_processors/5.4.1/bin/../lib/gcc/arm-none-eabi/5.4.1/../../../../arm-none-eabi/lib/armv7-ar/thumb/softfp\libc.a(lib_a-fopen.o)
                                                  d:/rt-threadstudio/repo/extract/toolchain_support_packages/arm/gnu_tools_for_arm_embedded_processors/5.4.1/bin/../lib/gcc/arm-none-eabi/5.4.1/../../../../arm-none-eabi/lib/armv7-ar/thumb/softfp\libc.a(lib_a-fclose.o)
__sfvwrite_r                                      d:/rt-threadstudio/repo/extract/toolchain_support_packages/arm/gnu_tools_for_arm_embedded_processors/5.4.1/bin/../lib/gcc/arm-none-eabi/5.4.1/../../../../arm-none-eabi/lib/armv7-ar/thumb/softfp\libc.a(lib_a-fvwrite.o)
                                                  d:/rt-threadstudio/repo/extract/toolchain_support_packages/arm/gnu_tools_for_arm_embedded_processors/5.4.1/bin/../lib/gcc/arm-none-eabi/5.4.1/../../../../arm-none-eabi/lib/armv7-ar/thumb/softfp\libc.a(lib_a-puts.o)
__sinit                                           d:/rt-threadstudio/repo/extract/toolchain_support_packages/arm/gnu_tools_for_arm_embedded_processors/5.4.1/bin/../lib/gcc/arm-none-eabi/5.4.1/../../../../arm-none-eabi/lib/armv7-ar/thumb/softfp\libc.a(lib_a-findfp.o)
                                                  d:/rt-threadstudio/repo/extract/toolchain_support_packages/arm/gnu_tools_for_arm_embedded_processors/5.4.1/bin/../lib/gcc/arm-none-eabi/5.4.1/../../../../arm-none-eabi/lib/armv7-ar/thumb/softfp\libc.a(lib_a-wsetup.o)
                                                  d:/rt-threadstudio/repo/extract/toolchain_support_packages/arm/gnu_tools_for_arm_embedded_processors/5.4.1/bin/../lib/gcc/arm-none-eabi/5.4.1/../../../../arm-none-eabi/lib/armv7-ar/thumb/softfp\libc.a(lib_a-setvbuf.o)
                                                  d:/rt-threadstudio/repo/extract/toolchain_support_packages/arm/gnu_tools_for_arm_embedded_processors/5.4.1/bin/../lib/gcc/arm-none-eabi/5.4.1/../../../../arm-none-eabi/lib/armv7-ar/thumb/softfp\libc.a(lib_a-rget.o)
                                                  d:/rt-threadstudio/repo/extract/toolchain_support_packages/arm/gnu_tools_for_arm_embedded_processors/5.4.1/bin/../lib/gcc/arm-none-eabi/5.4.1/../../../../arm-none-eabi/lib/armv7-ar/thumb/softfp\libc.a(lib_a-refill.o)
                                                  d:/rt-threadstudio/repo/extract/toolchain_support_packages/arm/gnu_tools_for_arm_embedded_processors/5.4.1/bin/../lib/gcc/arm-none-eabi/5.4.1/../../../../arm-none-eabi/lib/armv7-ar/thumb/softfp\libc.a(lib_a-puts.o)
                                                  d:/rt-threadstudio/repo/extract/toolchain_support_packages/arm/gnu_tools_for_arm_embedded_processors/5.4.1/bin/../lib/gcc/arm-none-eabi/5.4.1/../../../../arm-none-eabi/lib/armv7-ar/thumb/softfp\libc.a(lib_a-getc.o)
                                                  d:/rt-threadstudio/repo/extract/toolchain_support_packages/arm/gnu_tools_for_arm_embedded_processors/5.4.1/bin/../lib/gcc/arm-none-eabi/5.4.1/../../../../arm-none-eabi/lib/armv7-ar/thumb/softfp\libc.a(lib_a-fseeko.o)
                                                  d:/rt-threadstudio/repo/extract/toolchain_support_packages/arm/gnu_tools_for_arm_embedded_processors/5.4.1/bin/../lib/gcc/arm-none-eabi/5.4.1/../../../../arm-none-eabi/lib/armv7-ar/thumb/softfp\libc.a(lib_a-fileno.o)
                                                  d:/rt-threadstudio/repo/extract/toolchain_support_packages/arm/gnu_tools_for_arm_embedded_processors/5.4.1/bin/../lib/gcc/arm-none-eabi/5.4.1/../../../../arm-none-eabi/lib/armv7-ar/thumb/softfp\libc.a(lib_a-fflush.o)
                                                  d:/rt-threadstudio/repo/extract/toolchain_support_packages/arm/gnu_tools_for_arm_embedded_processors/5.4.1/bin/../lib/gcc/arm-none-eabi/5.4.1/../../../../arm-none-eabi/lib/armv7-ar/thumb/softfp\libc.a(lib_a-fclose.o)
__sinit_lock_acquire                              d:/rt-threadstudio/repo/extract/toolchain_support_packages/arm/gnu_tools_for_arm_embedded_processors/5.4.1/bin/../lib/gcc/arm-none-eabi/5.4.1/../../../../arm-none-eabi/lib/armv7-ar/thumb/softfp\libc.a(lib_a-findfp.o)
__sinit_lock_release                              d:/rt-threadstudio/repo/extract/toolchain_support_packages/arm/gnu_tools_for_arm_embedded_processors/5.4.1/bin/../lib/gcc/arm-none-eabi/5.4.1/../../../../arm-none-eabi/lib/armv7-ar/thumb/softfp\libc.a(lib_a-findfp.o)
__smakebuf_r                                      d:/rt-threadstudio/repo/extract/toolchain_support_packages/arm/gnu_tools_for_arm_embedded_processors/5.4.1/bin/../lib/gcc/arm-none-eabi/5.4.1/../../../../arm-none-eabi/lib/armv7-ar/thumb/softfp\libc.a(lib_a-makebuf.o)
                                                  d:/rt-threadstudio/repo/extract/toolchain_support_packages/arm/gnu_tools_for_arm_embedded_processors/5.4.1/bin/../lib/gcc/arm-none-eabi/5.4.1/../../../../arm-none-eabi/lib/armv7-ar/thumb/softfp\libc.a(lib_a-wsetup.o)
                                                  d:/rt-threadstudio/repo/extract/toolchain_support_packages/arm/gnu_tools_for_arm_embedded_processors/5.4.1/bin/../lib/gcc/arm-none-eabi/5.4.1/../../../../arm-none-eabi/lib/armv7-ar/thumb/softfp\libc.a(lib_a-refill.o)
                                                  d:/rt-threadstudio/repo/extract/toolchain_support_packages/arm/gnu_tools_for_arm_embedded_processors/5.4.1/bin/../lib/gcc/arm-none-eabi/5.4.1/../../../../arm-none-eabi/lib/armv7-ar/thumb/softfp\libc.a(lib_a-fseeko.o)
__sread                                           d:/rt-threadstudio/repo/extract/toolchain_support_packages/arm/gnu_tools_for_arm_embedded_processors/5.4.1/bin/../lib/gcc/arm-none-eabi/5.4.1/../../../../arm-none-eabi/lib/armv7-ar/thumb/softfp\libc.a(lib_a-stdio.o)
                                                  d:/rt-threadstudio/repo/extract/toolchain_support_packages/arm/gnu_tools_for_arm_embedded_processors/5.4.1/bin/../lib/gcc/arm-none-eabi/5.4.1/../../../../arm-none-eabi/lib/armv7-ar/thumb/softfp\libc.a(lib_a-fopen.o)
                                                  d:/rt-threadstudio/repo/extract/toolchain_support_packages/arm/gnu_tools_for_arm_embedded_processors/5.4.1/bin/../lib/gcc/arm-none-eabi/5.4.1/../../../../arm-none-eabi/lib/armv7-ar/thumb/softfp\libc.a(lib_a-findfp.o)
__srefill_r                                       d:/rt-threadstudio/repo/extract/toolchain_support_packages/arm/gnu_tools_for_arm_embedded_processors/5.4.1/bin/../lib/gcc/arm-none-eabi/5.4.1/../../../../arm-none-eabi/lib/armv7-ar/thumb/softfp\libc.a(lib_a-refill.o)
                                                  d:/rt-threadstudio/repo/extract/toolchain_support_packages/arm/gnu_tools_for_arm_embedded_processors/5.4.1/bin/../lib/gcc/arm-none-eabi/5.4.1/../../../../arm-none-eabi/lib/armv7-ar/thumb/softfp\libc.a(lib_a-rget.o)
                                                  d:/rt-threadstudio/repo/extract/toolchain_support_packages/arm/gnu_tools_for_arm_embedded_processors/5.4.1/bin/../lib/gcc/arm-none-eabi/5.4.1/../../../../arm-none-eabi/lib/armv7-ar/thumb/softfp\libc.a(lib_a-fseeko.o)
__srget                                           d:/rt-threadstudio/repo/extract/toolchain_support_packages/arm/gnu_tools_for_arm_embedded_processors/5.4.1/bin/../lib/gcc/arm-none-eabi/5.4.1/../../../../arm-none-eabi/lib/armv7-ar/thumb/softfp\libc.a(lib_a-rget.o)
__srget_r                                         d:/rt-threadstudio/repo/extract/toolchain_support_packages/arm/gnu_tools_for_arm_embedded_processors/5.4.1/bin/../lib/gcc/arm-none-eabi/5.4.1/../../../../arm-none-eabi/lib/armv7-ar/thumb/softfp\libc.a(lib_a-rget.o)
                                                  d:/rt-threadstudio/repo/extract/toolchain_support_packages/arm/gnu_tools_for_arm_embedded_processors/5.4.1/bin/../lib/gcc/arm-none-eabi/5.4.1/../../../../arm-none-eabi/lib/armv7-ar/thumb/softfp\libc.a(lib_a-getc.o)
                                                  ./rt-thread/components/finsh/shell.o
__sseek                                           d:/rt-threadstudio/repo/extract/toolchain_support_packages/arm/gnu_tools_for_arm_embedded_processors/5.4.1/bin/../lib/gcc/arm-none-eabi/5.4.1/../../../../arm-none-eabi/lib/armv7-ar/thumb/softfp\libc.a(lib_a-stdio.o)
                                                  d:/rt-threadstudio/repo/extract/toolchain_support_packages/arm/gnu_tools_for_arm_embedded_processors/5.4.1/bin/../lib/gcc/arm-none-eabi/5.4.1/../../../../arm-none-eabi/lib/armv7-ar/thumb/softfp\libc.a(lib_a-fseeko.o)
                                                  d:/rt-threadstudio/repo/extract/toolchain_support_packages/arm/gnu_tools_for_arm_embedded_processors/5.4.1/bin/../lib/gcc/arm-none-eabi/5.4.1/../../../../arm-none-eabi/lib/armv7-ar/thumb/softfp\libc.a(lib_a-fopen.o)
                                                  d:/rt-threadstudio/repo/extract/toolchain_support_packages/arm/gnu_tools_for_arm_embedded_processors/5.4.1/bin/../lib/gcc/arm-none-eabi/5.4.1/../../../../arm-none-eabi/lib/armv7-ar/thumb/softfp\libc.a(lib_a-findfp.o)
__ssprint_r                                       d:/rt-threadstudio/repo/extract/toolchain_support_packages/arm/gnu_tools_for_arm_embedded_processors/5.4.1/bin/../lib/gcc/arm-none-eabi/5.4.1/../../../../arm-none-eabi/lib/armv7-ar/thumb/softfp\libc.a(lib_a-svfiprintf.o)
                                                  d:/rt-threadstudio/repo/extract/toolchain_support_packages/arm/gnu_tools_for_arm_embedded_processors/5.4.1/bin/../lib/gcc/arm-none-eabi/5.4.1/../../../../arm-none-eabi/lib/armv7-ar/thumb/softfp\libc.a(lib_a-svfprintf.o)
__stack                                           d:/rt-threadstudio/repo/extract/toolchain_support_packages/arm/gnu_tools_for_arm_embedded_processors/5.4.1/bin/../lib/gcc/arm-none-eabi/5.4.1/../../../../arm-none-eabi/lib/armv7-ar/thumb/softfp/crt0.o
__swhatbuf_r                                      d:/rt-threadstudio/repo/extract/toolchain_support_packages/arm/gnu_tools_for_arm_embedded_processors/5.4.1/bin/../lib/gcc/arm-none-eabi/5.4.1/../../../../arm-none-eabi/lib/armv7-ar/thumb/softfp\libc.a(lib_a-makebuf.o)
                                                  d:/rt-threadstudio/repo/extract/toolchain_support_packages/arm/gnu_tools_for_arm_embedded_processors/5.4.1/bin/../lib/gcc/arm-none-eabi/5.4.1/../../../../arm-none-eabi/lib/armv7-ar/thumb/softfp\libc.a(lib_a-setvbuf.o)
__swrite                                          d:/rt-threadstudio/repo/extract/toolchain_support_packages/arm/gnu_tools_for_arm_embedded_processors/5.4.1/bin/../lib/gcc/arm-none-eabi/5.4.1/../../../../arm-none-eabi/lib/armv7-ar/thumb/softfp\libc.a(lib_a-stdio.o)
                                                  d:/rt-threadstudio/repo/extract/toolchain_support_packages/arm/gnu_tools_for_arm_embedded_processors/5.4.1/bin/../lib/gcc/arm-none-eabi/5.4.1/../../../../arm-none-eabi/lib/armv7-ar/thumb/softfp\libc.a(lib_a-fopen.o)
                                                  d:/rt-threadstudio/repo/extract/toolchain_support_packages/arm/gnu_tools_for_arm_embedded_processors/5.4.1/bin/../lib/gcc/arm-none-eabi/5.4.1/../../../../arm-none-eabi/lib/armv7-ar/thumb/softfp\libc.a(lib_a-findfp.o)
__swsetup_r                                       d:/rt-threadstudio/repo/extract/toolchain_support_packages/arm/gnu_tools_for_arm_embedded_processors/5.4.1/bin/../lib/gcc/arm-none-eabi/5.4.1/../../../../arm-none-eabi/lib/armv7-ar/thumb/softfp\libc.a(lib_a-wsetup.o)
                                                  d:/rt-threadstudio/repo/extract/toolchain_support_packages/arm/gnu_tools_for_arm_embedded_processors/5.4.1/bin/../lib/gcc/arm-none-eabi/5.4.1/../../../../arm-none-eabi/lib/armv7-ar/thumb/softfp\libc.a(lib_a-fvwrite.o)
__udivmoddi4                                      d:/rt-threadstudio/repo/extract/toolchain_support_packages/arm/gnu_tools_for_arm_embedded_processors/5.4.1/bin/../lib/gcc/arm-none-eabi/5.4.1/armv7-ar/thumb/softfp\libgcc.a(_udivmoddi4.o)
                                                  d:/rt-threadstudio/repo/extract/toolchain_support_packages/arm/gnu_tools_for_arm_embedded_processors/5.4.1/bin/../lib/gcc/arm-none-eabi/5.4.1/armv7-ar/thumb/softfp\libgcc.a(_aeabi_uldivmod.o)
__udivsi3                                         d:/rt-threadstudio/repo/extract/toolchain_support_packages/arm/gnu_tools_for_arm_embedded_processors/5.4.1/bin/../lib/gcc/arm-none-eabi/5.4.1/armv7-ar/thumb/softfp\libgcc.a(_udivsi3.o)
__ulp                                             d:/rt-threadstudio/repo/extract/toolchain_support_packages/arm/gnu_tools_for_arm_embedded_processors/5.4.1/bin/../lib/gcc/arm-none-eabi/5.4.1/../../../../arm-none-eabi/lib/armv7-ar/thumb/softfp\libc.a(lib_a-mprec.o)
__wqueue_default_wake                             ./rt-thread/components/drivers/src/waitqueue.o
                                                  ./rt-thread/components/dfs/src/dfs_poll.o
_atoi_r                                           d:/rt-threadstudio/repo/extract/toolchain_support_packages/arm/gnu_tools_for_arm_embedded_processors/5.4.1/bin/../lib/gcc/arm-none-eabi/5.4.1/../../../../arm-none-eabi/lib/armv7-ar/thumb/softfp\libc.a(lib_a-atoi.o)
_c_int00                                          ./HALCoGen/source/sys_startup.o
                                                  ./rt-thread/libcpu/arm/am335x/start_gcc.o
_calloc_r                                         ./rt-thread/components/libc/compilers/gcc/newlib/syscalls.o
                                                  d:/rt-threadstudio/repo/extract/toolchain_support_packages/arm/gnu_tools_for_arm_embedded_processors/5.4.1/bin/../lib/gcc/arm-none-eabi/5.4.1/../../../../arm-none-eabi/lib/armv7-ar/thumb/softfp\libc.a(lib_a-mprec.o)
_cleanup                                          d:/rt-threadstudio/repo/extract/toolchain_support_packages/arm/gnu_tools_for_arm_embedded_processors/5.4.1/bin/../lib/gcc/arm-none-eabi/5.4.1/../../../../arm-none-eabi/lib/armv7-ar/thumb/softfp\libc.a(lib_a-findfp.o)
_cleanup_r                                        d:/rt-threadstudio/repo/extract/toolchain_support_packages/arm/gnu_tools_for_arm_embedded_processors/5.4.1/bin/../lib/gcc/arm-none-eabi/5.4.1/../../../../arm-none-eabi/lib/armv7-ar/thumb/softfp\libc.a(lib_a-findfp.o)
                                                  d:/rt-threadstudio/repo/extract/toolchain_support_packages/arm/gnu_tools_for_arm_embedded_processors/5.4.1/bin/../lib/gcc/arm-none-eabi/5.4.1/../../../../arm-none-eabi/lib/armv7-ar/thumb/softfp\libc.a(lib_a-makebuf.o)
_close_r                                          ./rt-thread/components/libc/compilers/gcc/newlib/syscalls.o
                                                  d:/rt-threadstudio/repo/extract/toolchain_support_packages/arm/gnu_tools_for_arm_embedded_processors/5.4.1/bin/../lib/gcc/arm-none-eabi/5.4.1/../../../../arm-none-eabi/lib/armv7-ar/thumb/softfp\libc.a(lib_a-stdio.o)
_coreClearAuxiliaryDataFault_                     ./rt-thread/libcpu/arm/am335x/start_gcc.o
_coreClearAuxiliaryInstructionFault_              ./rt-thread/libcpu/arm/am335x/start_gcc.o
_coreClearDataFaultAddress_                       ./rt-thread/libcpu/arm/am335x/start_gcc.o
_coreClearDataFault_                              ./rt-thread/libcpu/arm/am335x/start_gcc.o
_coreClearInstructionFaultAddress_                ./rt-thread/libcpu/arm/am335x/start_gcc.o
_coreClearInstructionFault_                       ./rt-thread/libcpu/arm/am335x/start_gcc.o
_coreDisableFlashEcc_                             ./rt-thread/libcpu/arm/am335x/start_gcc.o
_coreDisableRamEcc_                               ./rt-thread/libcpu/arm/am335x/start_gcc.o
_coreEnableFlashEcc_                              ./rt-thread/libcpu/arm/am335x/start_gcc.o
_coreEnableRamEcc_                                ./rt-thread/libcpu/arm/am335x/start_gcc.o
                                                  ./HALCoGen/source/sys_startup.o
_coreGetAuxiliaryDataFault_                       ./rt-thread/libcpu/arm/am335x/start_gcc.o
_coreGetAuxiliaryInstructionFault_                ./rt-thread/libcpu/arm/am335x/start_gcc.o
_coreGetDataFaultAddress_                         ./rt-thread/libcpu/arm/am335x/start_gcc.o
_coreGetDataFault_                                ./rt-thread/libcpu/arm/am335x/start_gcc.o
_coreGetInstructionFaultAddress_                  ./rt-thread/libcpu/arm/am335x/start_gcc.o
_coreGetInstructionFault_                         ./rt-thread/libcpu/arm/am335x/start_gcc.o
_ctype_                                           d:/rt-threadstudio/repo/extract/toolchain_support_packages/arm/gnu_tools_for_arm_embedded_processors/5.4.1/bin/../lib/gcc/arm-none-eabi/5.4.1/../../../../arm-none-eabi/lib/armv7-ar/thumb/softfp\libc.a(lib_a-ctype_.o)
                                                  d:/rt-threadstudio/repo/extract/toolchain_support_packages/arm/gnu_tools_for_arm_embedded_processors/5.4.1/bin/../lib/gcc/arm-none-eabi/5.4.1/../../../../arm-none-eabi/lib/armv7-ar/thumb/softfp\libc.a(lib_a-locale.o)
_dtoa_r                                           d:/rt-threadstudio/repo/extract/toolchain_support_packages/arm/gnu_tools_for_arm_embedded_processors/5.4.1/bin/../lib/gcc/arm-none-eabi/5.4.1/../../../../arm-none-eabi/lib/armv7-ar/thumb/softfp\libc.a(lib_a-dtoa.o)
                                                  d:/rt-threadstudio/repo/extract/toolchain_support_packages/arm/gnu_tools_for_arm_embedded_processors/5.4.1/bin/../lib/gcc/arm-none-eabi/5.4.1/../../../../arm-none-eabi/lib/armv7-ar/thumb/softfp\libc.a(lib_a-svfprintf.o)
_edata                                            ./rt-thread/libcpu/arm/am335x/start_gcc.o
_errata_CORTEXR4_57_                              ./rt-thread/libcpu/arm/am335x/start_gcc.o
                                                  ./HALCoGen/source/sys_startup.o
_errata_CORTEXR4_66_                              ./rt-thread/libcpu/arm/am335x/start_gcc.o
                                                  ./HALCoGen/source/sys_startup.o
_esmCcmErrorsClear_                               ./rt-thread/libcpu/arm/am335x/start_gcc.o
                                                  ./HALCoGen/source/sys_startup.o
_execve_r                                         ./rt-thread/components/libc/compilers/gcc/newlib/syscalls.o
_exit                                             ./rt-thread/components/libc/compilers/gcc/newlib/syscalls.o
                                                  d:/rt-threadstudio/repo/extract/toolchain_support_packages/arm/gnu_tools_for_arm_embedded_processors/5.4.1/bin/../lib/gcc/arm-none-eabi/5.4.1/../../../../arm-none-eabi/lib/armv7-ar/thumb/softfp\libc.a(lib_a-exit.o)
_fclose_r                                         d:/rt-threadstudio/repo/extract/toolchain_support_packages/arm/gnu_tools_for_arm_embedded_processors/5.4.1/bin/../lib/gcc/arm-none-eabi/5.4.1/../../../../arm-none-eabi/lib/armv7-ar/thumb/softfp\libc.a(lib_a-fclose.o)
                                                  d:/rt-threadstudio/repo/extract/toolchain_support_packages/arm/gnu_tools_for_arm_embedded_processors/5.4.1/bin/../lib/gcc/arm-none-eabi/5.4.1/../../../../arm-none-eabi/lib/armv7-ar/thumb/softfp\libc.a(lib_a-findfp.o)
_fcntl_r                                          ./rt-thread/components/libc/compilers/gcc/newlib/syscalls.o
_fflush_r                                         d:/rt-threadstudio/repo/extract/toolchain_support_packages/arm/gnu_tools_for_arm_embedded_processors/5.4.1/bin/../lib/gcc/arm-none-eabi/5.4.1/../../../../arm-none-eabi/lib/armv7-ar/thumb/softfp\libc.a(lib_a-fflush.o)
                                                  d:/rt-threadstudio/repo/extract/toolchain_support_packages/arm/gnu_tools_for_arm_embedded_processors/5.4.1/bin/../lib/gcc/arm-none-eabi/5.4.1/../../../../arm-none-eabi/lib/armv7-ar/thumb/softfp\libc.a(lib_a-fvwrite.o)
                                                  d:/rt-threadstudio/repo/extract/toolchain_support_packages/arm/gnu_tools_for_arm_embedded_processors/5.4.1/bin/../lib/gcc/arm-none-eabi/5.4.1/../../../../arm-none-eabi/lib/armv7-ar/thumb/softfp\libc.a(lib_a-setvbuf.o)
                                                  d:/rt-threadstudio/repo/extract/toolchain_support_packages/arm/gnu_tools_for_arm_embedded_processors/5.4.1/bin/../lib/gcc/arm-none-eabi/5.4.1/../../../../arm-none-eabi/lib/armv7-ar/thumb/softfp\libc.a(lib_a-refill.o)
                                                  d:/rt-threadstudio/repo/extract/toolchain_support_packages/arm/gnu_tools_for_arm_embedded_processors/5.4.1/bin/../lib/gcc/arm-none-eabi/5.4.1/../../../../arm-none-eabi/lib/armv7-ar/thumb/softfp\libc.a(lib_a-fseeko.o)
_findenv_r                                        d:/rt-threadstudio/repo/extract/toolchain_support_packages/arm/gnu_tools_for_arm_embedded_processors/5.4.1/bin/../lib/gcc/arm-none-eabi/5.4.1/../../../../arm-none-eabi/lib/armv7-ar/thumb/softfp\libc.a(lib_a-getenv_r.o)
                                                  d:/rt-threadstudio/repo/extract/toolchain_support_packages/arm/gnu_tools_for_arm_embedded_processors/5.4.1/bin/../lib/gcc/arm-none-eabi/5.4.1/../../../../arm-none-eabi/lib/armv7-ar/thumb/softfp\libc.a(lib_a-setenv_r.o)
_fini                                             d:/rt-threadstudio/repo/extract/toolchain_support_packages/arm/gnu_tools_for_arm_embedded_processors/5.4.1/bin/../lib/gcc/arm-none-eabi/5.4.1/armv7-ar/thumb/softfp/crti.o
                                                  d:/rt-threadstudio/repo/extract/toolchain_support_packages/arm/gnu_tools_for_arm_embedded_processors/5.4.1/bin/../lib/gcc/arm-none-eabi/5.4.1/../../../../arm-none-eabi/lib/armv7-ar/thumb/softfp\libc.a(lib_a-fini.o)
_fopen_r                                          d:/rt-threadstudio/repo/extract/toolchain_support_packages/arm/gnu_tools_for_arm_embedded_processors/5.4.1/bin/../lib/gcc/arm-none-eabi/5.4.1/../../../../arm-none-eabi/lib/armv7-ar/thumb/softfp\libc.a(lib_a-fopen.o)
_fork_r                                           ./rt-thread/components/libc/compilers/gcc/newlib/syscalls.o
_free_r                                           ./rt-thread/components/libc/compilers/gcc/newlib/syscalls.o
                                                  d:/rt-threadstudio/repo/extract/toolchain_support_packages/arm/gnu_tools_for_arm_embedded_processors/5.4.1/bin/../lib/gcc/arm-none-eabi/5.4.1/../../../../arm-none-eabi/lib/armv7-ar/thumb/softfp\libc.a(lib_a-wsetup.o)
                                                  d:/rt-threadstudio/repo/extract/toolchain_support_packages/arm/gnu_tools_for_arm_embedded_processors/5.4.1/bin/../lib/gcc/arm-none-eabi/5.4.1/../../../../arm-none-eabi/lib/armv7-ar/thumb/softfp\libc.a(lib_a-svfiprintf.o)
                                                  d:/rt-threadstudio/repo/extract/toolchain_support_packages/arm/gnu_tools_for_arm_embedded_processors/5.4.1/bin/../lib/gcc/arm-none-eabi/5.4.1/../../../../arm-none-eabi/lib/armv7-ar/thumb/softfp\libc.a(lib_a-malloc.o)
                                                  d:/rt-threadstudio/repo/extract/toolchain_support_packages/arm/gnu_tools_for_arm_embedded_processors/5.4.1/bin/../lib/gcc/arm-none-eabi/5.4.1/../../../../arm-none-eabi/lib/armv7-ar/thumb/softfp\libc.a(lib_a-fvwrite.o)
                                                  d:/rt-threadstudio/repo/extract/toolchain_support_packages/arm/gnu_tools_for_arm_embedded_processors/5.4.1/bin/../lib/gcc/arm-none-eabi/5.4.1/../../../../arm-none-eabi/lib/armv7-ar/thumb/softfp\libc.a(lib_a-setvbuf.o)
                                                  d:/rt-threadstudio/repo/extract/toolchain_support_packages/arm/gnu_tools_for_arm_embedded_processors/5.4.1/bin/../lib/gcc/arm-none-eabi/5.4.1/../../../../arm-none-eabi/lib/armv7-ar/thumb/softfp\libc.a(lib_a-refill.o)
                                                  d:/rt-threadstudio/repo/extract/toolchain_support_packages/arm/gnu_tools_for_arm_embedded_processors/5.4.1/bin/../lib/gcc/arm-none-eabi/5.4.1/../../../../arm-none-eabi/lib/armv7-ar/thumb/softfp\libc.a(lib_a-putenv_r.o)
                                                  d:/rt-threadstudio/repo/extract/toolchain_support_packages/arm/gnu_tools_for_arm_embedded_processors/5.4.1/bin/../lib/gcc/arm-none-eabi/5.4.1/../../../../arm-none-eabi/lib/armv7-ar/thumb/softfp\libc.a(lib_a-fseeko.o)
                                                  d:/rt-threadstudio/repo/extract/toolchain_support_packages/arm/gnu_tools_for_arm_embedded_processors/5.4.1/bin/../lib/gcc/arm-none-eabi/5.4.1/../../../../arm-none-eabi/lib/armv7-ar/thumb/softfp\libc.a(lib_a-fflush.o)
                                                  d:/rt-threadstudio/repo/extract/toolchain_support_packages/arm/gnu_tools_for_arm_embedded_processors/5.4.1/bin/../lib/gcc/arm-none-eabi/5.4.1/../../../../arm-none-eabi/lib/armv7-ar/thumb/softfp\libc.a(lib_a-fclose.o)
_fseek_r                                          d:/rt-threadstudio/repo/extract/toolchain_support_packages/arm/gnu_tools_for_arm_embedded_processors/5.4.1/bin/../lib/gcc/arm-none-eabi/5.4.1/../../../../arm-none-eabi/lib/armv7-ar/thumb/softfp\libc.a(lib_a-fseek.o)
                                                  d:/rt-threadstudio/repo/extract/toolchain_support_packages/arm/gnu_tools_for_arm_embedded_processors/5.4.1/bin/../lib/gcc/arm-none-eabi/5.4.1/../../../../arm-none-eabi/lib/armv7-ar/thumb/softfp\libc.a(lib_a-fopen.o)
_fseeko_r                                         d:/rt-threadstudio/repo/extract/toolchain_support_packages/arm/gnu_tools_for_arm_embedded_processors/5.4.1/bin/../lib/gcc/arm-none-eabi/5.4.1/../../../../arm-none-eabi/lib/armv7-ar/thumb/softfp\libc.a(lib_a-fseeko.o)
                                                  d:/rt-threadstudio/repo/extract/toolchain_support_packages/arm/gnu_tools_for_arm_embedded_processors/5.4.1/bin/../lib/gcc/arm-none-eabi/5.4.1/../../../../arm-none-eabi/lib/armv7-ar/thumb/softfp\libc.a(lib_a-fseek.o)
_fstat_r                                          ./rt-thread/components/libc/compilers/gcc/newlib/syscalls.o
                                                  d:/rt-threadstudio/repo/extract/toolchain_support_packages/arm/gnu_tools_for_arm_embedded_processors/5.4.1/bin/../lib/gcc/arm-none-eabi/5.4.1/../../../../arm-none-eabi/lib/armv7-ar/thumb/softfp\libc.a(lib_a-makebuf.o)
                                                  d:/rt-threadstudio/repo/extract/toolchain_support_packages/arm/gnu_tools_for_arm_embedded_processors/5.4.1/bin/../lib/gcc/arm-none-eabi/5.4.1/../../../../arm-none-eabi/lib/armv7-ar/thumb/softfp\libc.a(lib_a-fseeko.o)
_fwalk                                            d:/rt-threadstudio/repo/extract/toolchain_support_packages/arm/gnu_tools_for_arm_embedded_processors/5.4.1/bin/../lib/gcc/arm-none-eabi/5.4.1/../../../../arm-none-eabi/lib/armv7-ar/thumb/softfp\libc.a(lib_a-fwalk.o)
                                                  d:/rt-threadstudio/repo/extract/toolchain_support_packages/arm/gnu_tools_for_arm_embedded_processors/5.4.1/bin/../lib/gcc/arm-none-eabi/5.4.1/../../../../arm-none-eabi/lib/armv7-ar/thumb/softfp\libc.a(lib_a-refill.o)
                                                  d:/rt-threadstudio/repo/extract/toolchain_support_packages/arm/gnu_tools_for_arm_embedded_processors/5.4.1/bin/../lib/gcc/arm-none-eabi/5.4.1/../../../../arm-none-eabi/lib/armv7-ar/thumb/softfp\libc.a(lib_a-findfp.o)
_fwalk_reent                                      d:/rt-threadstudio/repo/extract/toolchain_support_packages/arm/gnu_tools_for_arm_embedded_processors/5.4.1/bin/../lib/gcc/arm-none-eabi/5.4.1/../../../../arm-none-eabi/lib/armv7-ar/thumb/softfp\libc.a(lib_a-fwalk.o)
                                                  d:/rt-threadstudio/repo/extract/toolchain_support_packages/arm/gnu_tools_for_arm_embedded_processors/5.4.1/bin/../lib/gcc/arm-none-eabi/5.4.1/../../../../arm-none-eabi/lib/armv7-ar/thumb/softfp\libc.a(lib_a-findfp.o)
                                                  d:/rt-threadstudio/repo/extract/toolchain_support_packages/arm/gnu_tools_for_arm_embedded_processors/5.4.1/bin/../lib/gcc/arm-none-eabi/5.4.1/../../../../arm-none-eabi/lib/armv7-ar/thumb/softfp\libc.a(lib_a-fflush.o)
_getc_r                                           d:/rt-threadstudio/repo/extract/toolchain_support_packages/arm/gnu_tools_for_arm_embedded_processors/5.4.1/bin/../lib/gcc/arm-none-eabi/5.4.1/../../../../arm-none-eabi/lib/armv7-ar/thumb/softfp\libc.a(lib_a-getc.o)
_getenv_r                                         d:/rt-threadstudio/repo/extract/toolchain_support_packages/arm/gnu_tools_for_arm_embedded_processors/5.4.1/bin/../lib/gcc/arm-none-eabi/5.4.1/../../../../arm-none-eabi/lib/armv7-ar/thumb/softfp\libc.a(lib_a-getenv_r.o)
_getpid_r                                         ./rt-thread/components/libc/compilers/gcc/newlib/syscalls.o
_global_impure_ptr                                d:/rt-threadstudio/repo/extract/toolchain_support_packages/arm/gnu_tools_for_arm_embedded_processors/5.4.1/bin/../lib/gcc/arm-none-eabi/5.4.1/../../../../arm-none-eabi/lib/armv7-ar/thumb/softfp\libc.a(lib_a-impure.o)
                                                  d:/rt-threadstudio/repo/extract/toolchain_support_packages/arm/gnu_tools_for_arm_embedded_processors/5.4.1/bin/../lib/gcc/arm-none-eabi/5.4.1/../../../../arm-none-eabi/lib/armv7-ar/thumb/softfp\libc.a(lib_a-__atexit.o)
                                                  d:/rt-threadstudio/repo/extract/toolchain_support_packages/arm/gnu_tools_for_arm_embedded_processors/5.4.1/bin/../lib/gcc/arm-none-eabi/5.4.1/../../../../arm-none-eabi/lib/armv7-ar/thumb/softfp\libc.a(lib_a-__call_atexit.o)
                                                  d:/rt-threadstudio/repo/extract/toolchain_support_packages/arm/gnu_tools_for_arm_embedded_processors/5.4.1/bin/../lib/gcc/arm-none-eabi/5.4.1/../../../../arm-none-eabi/lib/armv7-ar/thumb/softfp\libc.a(lib_a-refill.o)
                                                  d:/rt-threadstudio/repo/extract/toolchain_support_packages/arm/gnu_tools_for_arm_embedded_processors/5.4.1/bin/../lib/gcc/arm-none-eabi/5.4.1/../../../../arm-none-eabi/lib/armv7-ar/thumb/softfp\libc.a(lib_a-findfp.o)
                                                  d:/rt-threadstudio/repo/extract/toolchain_support_packages/arm/gnu_tools_for_arm_embedded_processors/5.4.1/bin/../lib/gcc/arm-none-eabi/5.4.1/../../../../arm-none-eabi/lib/armv7-ar/thumb/softfp\libc.a(lib_a-fflush.o)
                                                  d:/rt-threadstudio/repo/extract/toolchain_support_packages/arm/gnu_tools_for_arm_embedded_processors/5.4.1/bin/../lib/gcc/arm-none-eabi/5.4.1/../../../../arm-none-eabi/lib/armv7-ar/thumb/softfp\libc.a(lib_a-exit.o)
                                                  ./rt-thread/components/libc/compilers/gcc/newlib/stdio.o
_impure_ptr                                       d:/rt-threadstudio/repo/extract/toolchain_support_packages/arm/gnu_tools_for_arm_embedded_processors/5.4.1/bin/../lib/gcc/arm-none-eabi/5.4.1/../../../../arm-none-eabi/lib/armv7-ar/thumb/softfp\libc.a(lib_a-impure.o)
                                                  d:/rt-threadstudio/repo/extract/toolchain_support_packages/arm/gnu_tools_for_arm_embedded_processors/5.4.1/bin/../lib/gcc/arm-none-eabi/5.4.1/../../../../arm-none-eabi/lib/armv7-ar/thumb/softfp\libc.a(lib_a-wsetup.o)
                                                  d:/rt-threadstudio/repo/extract/toolchain_support_packages/arm/gnu_tools_for_arm_embedded_processors/5.4.1/bin/../lib/gcc/arm-none-eabi/5.4.1/../../../../arm-none-eabi/lib/armv7-ar/thumb/softfp\libc.a(lib_a-wctomb_r.o)
                                                  d:/rt-threadstudio/repo/extract/toolchain_support_packages/arm/gnu_tools_for_arm_embedded_processors/5.4.1/bin/../lib/gcc/arm-none-eabi/5.4.1/../../../../arm-none-eabi/lib/armv7-ar/thumb/softfp\libc.a(lib_a-mbtowc_r.o)
                                                  d:/rt-threadstudio/repo/extract/toolchain_support_packages/arm/gnu_tools_for_arm_embedded_processors/5.4.1/bin/../lib/gcc/arm-none-eabi/5.4.1/../../../../arm-none-eabi/lib/armv7-ar/thumb/softfp\libc.a(lib_a-malloc.o)
                                                  d:/rt-threadstudio/repo/extract/toolchain_support_packages/arm/gnu_tools_for_arm_embedded_processors/5.4.1/bin/../lib/gcc/arm-none-eabi/5.4.1/../../../../arm-none-eabi/lib/armv7-ar/thumb/softfp\libc.a(lib_a-localeconv.o)
                                                  d:/rt-threadstudio/repo/extract/toolchain_support_packages/arm/gnu_tools_for_arm_embedded_processors/5.4.1/bin/../lib/gcc/arm-none-eabi/5.4.1/../../../../arm-none-eabi/lib/armv7-ar/thumb/softfp\libc.a(lib_a-locale.o)
                                                  d:/rt-threadstudio/repo/extract/toolchain_support_packages/arm/gnu_tools_for_arm_embedded_processors/5.4.1/bin/../lib/gcc/arm-none-eabi/5.4.1/../../../../arm-none-eabi/lib/armv7-ar/thumb/softfp\libc.a(lib_a-strtol.o)
                                                  d:/rt-threadstudio/repo/extract/toolchain_support_packages/arm/gnu_tools_for_arm_embedded_processors/5.4.1/bin/../lib/gcc/arm-none-eabi/5.4.1/../../../../arm-none-eabi/lib/armv7-ar/thumb/softfp\libc.a(lib_a-snprintf.o)
                                                  d:/rt-threadstudio/repo/extract/toolchain_support_packages/arm/gnu_tools_for_arm_embedded_processors/5.4.1/bin/../lib/gcc/arm-none-eabi/5.4.1/../../../../arm-none-eabi/lib/armv7-ar/thumb/softfp\libc.a(lib_a-setvbuf.o)
                                                  d:/rt-threadstudio/repo/extract/toolchain_support_packages/arm/gnu_tools_for_arm_embedded_processors/5.4.1/bin/../lib/gcc/arm-none-eabi/5.4.1/../../../../arm-none-eabi/lib/armv7-ar/thumb/softfp\libc.a(lib_a-rget.o)
                                                  d:/rt-threadstudio/repo/extract/toolchain_support_packages/arm/gnu_tools_for_arm_embedded_processors/5.4.1/bin/../lib/gcc/arm-none-eabi/5.4.1/../../../../arm-none-eabi/lib/armv7-ar/thumb/softfp\libc.a(lib_a-puts.o)
                                                  d:/rt-threadstudio/repo/extract/toolchain_support_packages/arm/gnu_tools_for_arm_embedded_processors/5.4.1/bin/../lib/gcc/arm-none-eabi/5.4.1/../../../../arm-none-eabi/lib/armv7-ar/thumb/softfp\libc.a(lib_a-putenv.o)
                                                  d:/rt-threadstudio/repo/extract/toolchain_support_packages/arm/gnu_tools_for_arm_embedded_processors/5.4.1/bin/../lib/gcc/arm-none-eabi/5.4.1/../../../../arm-none-eabi/lib/armv7-ar/thumb/softfp\libc.a(lib_a-getc.o)
                                                  d:/rt-threadstudio/repo/extract/toolchain_support_packages/arm/gnu_tools_for_arm_embedded_processors/5.4.1/bin/../lib/gcc/arm-none-eabi/5.4.1/../../../../arm-none-eabi/lib/armv7-ar/thumb/softfp\libc.a(lib_a-fseeko.o)
                                                  d:/rt-threadstudio/repo/extract/toolchain_support_packages/arm/gnu_tools_for_arm_embedded_processors/5.4.1/bin/../lib/gcc/arm-none-eabi/5.4.1/../../../../arm-none-eabi/lib/armv7-ar/thumb/softfp\libc.a(lib_a-fseek.o)
                                                  d:/rt-threadstudio/repo/extract/toolchain_support_packages/arm/gnu_tools_for_arm_embedded_processors/5.4.1/bin/../lib/gcc/arm-none-eabi/5.4.1/../../../../arm-none-eabi/lib/armv7-ar/thumb/softfp\libc.a(lib_a-fopen.o)
                                                  d:/rt-threadstudio/repo/extract/toolchain_support_packages/arm/gnu_tools_for_arm_embedded_processors/5.4.1/bin/../lib/gcc/arm-none-eabi/5.4.1/../../../../arm-none-eabi/lib/armv7-ar/thumb/softfp\libc.a(lib_a-findfp.o)
                                                  d:/rt-threadstudio/repo/extract/toolchain_support_packages/arm/gnu_tools_for_arm_embedded_processors/5.4.1/bin/../lib/gcc/arm-none-eabi/5.4.1/../../../../arm-none-eabi/lib/armv7-ar/thumb/softfp\libc.a(lib_a-fileno.o)
                                                  d:/rt-threadstudio/repo/extract/toolchain_support_packages/arm/gnu_tools_for_arm_embedded_processors/5.4.1/bin/../lib/gcc/arm-none-eabi/5.4.1/../../../../arm-none-eabi/lib/armv7-ar/thumb/softfp\libc.a(lib_a-fflush.o)
                                                  d:/rt-threadstudio/repo/extract/toolchain_support_packages/arm/gnu_tools_for_arm_embedded_processors/5.4.1/bin/../lib/gcc/arm-none-eabi/5.4.1/../../../../arm-none-eabi/lib/armv7-ar/thumb/softfp\libc.a(lib_a-fclose.o)
                                                  ./rt-thread/components/drivers/serial/serial.o
                                                  ./rt-thread/components/finsh/shell.o
_init                                             d:/rt-threadstudio/repo/extract/toolchain_support_packages/arm/gnu_tools_for_arm_embedded_processors/5.4.1/bin/../lib/gcc/arm-none-eabi/5.4.1/armv7-ar/thumb/softfp/crti.o
_isatty_r                                         ./rt-thread/components/libc/compilers/gcc/newlib/syscalls.o
                                                  d:/rt-threadstudio/repo/extract/toolchain_support_packages/arm/gnu_tools_for_arm_embedded_processors/5.4.1/bin/../lib/gcc/arm-none-eabi/5.4.1/../../../../arm-none-eabi/lib/armv7-ar/thumb/softfp\libc.a(lib_a-makebuf.o)
_kill_r                                           ./rt-thread/components/libc/compilers/gcc/newlib/syscalls.o
_link_r                                           ./rt-thread/components/libc/compilers/gcc/newlib/syscalls.o
_localeconv_r                                     d:/rt-threadstudio/repo/extract/toolchain_support_packages/arm/gnu_tools_for_arm_embedded_processors/5.4.1/bin/../lib/gcc/arm-none-eabi/5.4.1/../../../../arm-none-eabi/lib/armv7-ar/thumb/softfp\libc.a(lib_a-localeconv.o)
                                                  d:/rt-threadstudio/repo/extract/toolchain_support_packages/arm/gnu_tools_for_arm_embedded_processors/5.4.1/bin/../lib/gcc/arm-none-eabi/5.4.1/../../../../arm-none-eabi/lib/armv7-ar/thumb/softfp\libc.a(lib_a-svfprintf.o)
_lseek_r                                          ./rt-thread/components/libc/compilers/gcc/newlib/syscalls.o
                                                  d:/rt-threadstudio/repo/extract/toolchain_support_packages/arm/gnu_tools_for_arm_embedded_processors/5.4.1/bin/../lib/gcc/arm-none-eabi/5.4.1/../../../../arm-none-eabi/lib/armv7-ar/thumb/softfp\libc.a(lib_a-stdio.o)
_mainCRTStartup                                   d:/rt-threadstudio/repo/extract/toolchain_support_packages/arm/gnu_tools_for_arm_embedded_processors/5.4.1/bin/../lib/gcc/arm-none-eabi/5.4.1/../../../../arm-none-eabi/lib/armv7-ar/thumb/softfp/crt0.o
_malloc_r                                         ./rt-thread/components/libc/compilers/gcc/newlib/syscalls.o
                                                  d:/rt-threadstudio/repo/extract/toolchain_support_packages/arm/gnu_tools_for_arm_embedded_processors/5.4.1/bin/../lib/gcc/arm-none-eabi/5.4.1/../../../../arm-none-eabi/lib/armv7-ar/thumb/softfp\libc.a(lib_a-svfiprintf.o)
                                                  d:/rt-threadstudio/repo/extract/toolchain_support_packages/arm/gnu_tools_for_arm_embedded_processors/5.4.1/bin/../lib/gcc/arm-none-eabi/5.4.1/../../../../arm-none-eabi/lib/armv7-ar/thumb/softfp\libc.a(lib_a-malloc.o)
                                                  d:/rt-threadstudio/repo/extract/toolchain_support_packages/arm/gnu_tools_for_arm_embedded_processors/5.4.1/bin/../lib/gcc/arm-none-eabi/5.4.1/../../../../arm-none-eabi/lib/armv7-ar/thumb/softfp\libc.a(lib_a-fvwrite.o)
                                                  d:/rt-threadstudio/repo/extract/toolchain_support_packages/arm/gnu_tools_for_arm_embedded_processors/5.4.1/bin/../lib/gcc/arm-none-eabi/5.4.1/../../../../arm-none-eabi/lib/armv7-ar/thumb/softfp\libc.a(lib_a-svfprintf.o)
                                                  d:/rt-threadstudio/repo/extract/toolchain_support_packages/arm/gnu_tools_for_arm_embedded_processors/5.4.1/bin/../lib/gcc/arm-none-eabi/5.4.1/../../../../arm-none-eabi/lib/armv7-ar/thumb/softfp\libc.a(lib_a-strdup_r.o)
                                                  d:/rt-threadstudio/repo/extract/toolchain_support_packages/arm/gnu_tools_for_arm_embedded_processors/5.4.1/bin/../lib/gcc/arm-none-eabi/5.4.1/../../../../arm-none-eabi/lib/armv7-ar/thumb/softfp\libc.a(lib_a-setenv_r.o)
                                                  d:/rt-threadstudio/repo/extract/toolchain_support_packages/arm/gnu_tools_for_arm_embedded_processors/5.4.1/bin/../lib/gcc/arm-none-eabi/5.4.1/../../../../arm-none-eabi/lib/armv7-ar/thumb/softfp\libc.a(lib_a-makebuf.o)
                                                  d:/rt-threadstudio/repo/extract/toolchain_support_packages/arm/gnu_tools_for_arm_embedded_processors/5.4.1/bin/../lib/gcc/arm-none-eabi/5.4.1/../../../../arm-none-eabi/lib/armv7-ar/thumb/softfp\libc.a(lib_a-findfp.o)
_mbtowc_r                                         d:/rt-threadstudio/repo/extract/toolchain_support_packages/arm/gnu_tools_for_arm_embedded_processors/5.4.1/bin/../lib/gcc/arm-none-eabi/5.4.1/../../../../arm-none-eabi/lib/armv7-ar/thumb/softfp\libc.a(lib_a-mbtowc_r.o)
_mkdir_r                                          ./rt-thread/components/libc/compilers/gcc/newlib/syscalls.o
_mprec_log10                                      d:/rt-threadstudio/repo/extract/toolchain_support_packages/arm/gnu_tools_for_arm_embedded_processors/5.4.1/bin/../lib/gcc/arm-none-eabi/5.4.1/../../../../arm-none-eabi/lib/armv7-ar/thumb/softfp\libc.a(lib_a-mprec.o)
_open_r                                           ./rt-thread/components/libc/compilers/gcc/newlib/syscalls.o
                                                  d:/rt-threadstudio/repo/extract/toolchain_support_packages/arm/gnu_tools_for_arm_embedded_processors/5.4.1/bin/../lib/gcc/arm-none-eabi/5.4.1/../../../../arm-none-eabi/lib/armv7-ar/thumb/softfp\libc.a(lib_a-fopen.o)
_putenv_r                                         d:/rt-threadstudio/repo/extract/toolchain_support_packages/arm/gnu_tools_for_arm_embedded_processors/5.4.1/bin/../lib/gcc/arm-none-eabi/5.4.1/../../../../arm-none-eabi/lib/armv7-ar/thumb/softfp\libc.a(lib_a-putenv_r.o)
                                                  d:/rt-threadstudio/repo/extract/toolchain_support_packages/arm/gnu_tools_for_arm_embedded_processors/5.4.1/bin/../lib/gcc/arm-none-eabi/5.4.1/../../../../arm-none-eabi/lib/armv7-ar/thumb/softfp\libc.a(lib_a-putenv.o)
_puts_r                                           d:/rt-threadstudio/repo/extract/toolchain_support_packages/arm/gnu_tools_for_arm_embedded_processors/5.4.1/bin/../lib/gcc/arm-none-eabi/5.4.1/../../../../arm-none-eabi/lib/armv7-ar/thumb/softfp\libc.a(lib_a-puts.o)
_read_r                                           ./rt-thread/components/libc/compilers/gcc/newlib/syscalls.o
                                                  d:/rt-threadstudio/repo/extract/toolchain_support_packages/arm/gnu_tools_for_arm_embedded_processors/5.4.1/bin/../lib/gcc/arm-none-eabi/5.4.1/../../../../arm-none-eabi/lib/armv7-ar/thumb/softfp\libc.a(lib_a-stdio.o)
_realloc_r                                        ./rt-thread/components/libc/compilers/gcc/newlib/syscalls.o
                                                  d:/rt-threadstudio/repo/extract/toolchain_support_packages/arm/gnu_tools_for_arm_embedded_processors/5.4.1/bin/../lib/gcc/arm-none-eabi/5.4.1/../../../../arm-none-eabi/lib/armv7-ar/thumb/softfp\libc.a(lib_a-svfiprintf.o)
                                                  d:/rt-threadstudio/repo/extract/toolchain_support_packages/arm/gnu_tools_for_arm_embedded_processors/5.4.1/bin/../lib/gcc/arm-none-eabi/5.4.1/../../../../arm-none-eabi/lib/armv7-ar/thumb/softfp\libc.a(lib_a-fvwrite.o)
                                                  d:/rt-threadstudio/repo/extract/toolchain_support_packages/arm/gnu_tools_for_arm_embedded_processors/5.4.1/bin/../lib/gcc/arm-none-eabi/5.4.1/../../../../arm-none-eabi/lib/armv7-ar/thumb/softfp\libc.a(lib_a-setenv_r.o)
_rename_r                                         ./rt-thread/components/libc/compilers/gcc/newlib/syscalls.o
_reset                                            ./rt-thread/libcpu/arm/am335x/start_gcc.o
                                                  ./rt-thread/libcpu/arm/am335x/vector_gcc.o
_rt_errno                                         ./rt-thread/src/kservice.o
                                                  ./rt-thread/components/libc/compilers/gcc/newlib/syscalls.o
_sdata                                            ./rt-thread/libcpu/arm/am335x/start_gcc.o
_setenv_r                                         d:/rt-threadstudio/repo/extract/toolchain_support_packages/arm/gnu_tools_for_arm_embedded_processors/5.4.1/bin/../lib/gcc/arm-none-eabi/5.4.1/../../../../arm-none-eabi/lib/armv7-ar/thumb/softfp\libc.a(lib_a-setenv_r.o)
                                                  d:/rt-threadstudio/repo/extract/toolchain_support_packages/arm/gnu_tools_for_arm_embedded_processors/5.4.1/bin/../lib/gcc/arm-none-eabi/5.4.1/../../../../arm-none-eabi/lib/armv7-ar/thumb/softfp\libc.a(lib_a-putenv_r.o)
_setlocale_r                                      d:/rt-threadstudio/repo/extract/toolchain_support_packages/arm/gnu_tools_for_arm_embedded_processors/5.4.1/bin/../lib/gcc/arm-none-eabi/5.4.1/../../../../arm-none-eabi/lib/armv7-ar/thumb/softfp\libc.a(lib_a-locale.o)
_sidata                                           ./rt-thread/libcpu/arm/am335x/start_gcc.o
_snprintf_r                                       d:/rt-threadstudio/repo/extract/toolchain_support_packages/arm/gnu_tools_for_arm_embedded_processors/5.4.1/bin/../lib/gcc/arm-none-eabi/5.4.1/../../../../arm-none-eabi/lib/armv7-ar/thumb/softfp\libc.a(lib_a-snprintf.o)
_start                                            d:/rt-threadstudio/repo/extract/toolchain_support_packages/arm/gnu_tools_for_arm_embedded_processors/5.4.1/bin/../lib/gcc/arm-none-eabi/5.4.1/../../../../arm-none-eabi/lib/armv7-ar/thumb/softfp/crt0.o
_stat_r                                           ./rt-thread/components/libc/compilers/gcc/newlib/syscalls.o
_strdup_r                                         d:/rt-threadstudio/repo/extract/toolchain_support_packages/arm/gnu_tools_for_arm_embedded_processors/5.4.1/bin/../lib/gcc/arm-none-eabi/5.4.1/../../../../arm-none-eabi/lib/armv7-ar/thumb/softfp\libc.a(lib_a-strdup_r.o)
                                                  d:/rt-threadstudio/repo/extract/toolchain_support_packages/arm/gnu_tools_for_arm_embedded_processors/5.4.1/bin/../lib/gcc/arm-none-eabi/5.4.1/../../../../arm-none-eabi/lib/armv7-ar/thumb/softfp\libc.a(lib_a-putenv_r.o)
_strtol_r                                         d:/rt-threadstudio/repo/extract/toolchain_support_packages/arm/gnu_tools_for_arm_embedded_processors/5.4.1/bin/../lib/gcc/arm-none-eabi/5.4.1/../../../../arm-none-eabi/lib/armv7-ar/thumb/softfp\libc.a(lib_a-strtol.o)
                                                  d:/rt-threadstudio/repo/extract/toolchain_support_packages/arm/gnu_tools_for_arm_embedded_processors/5.4.1/bin/../lib/gcc/arm-none-eabi/5.4.1/../../../../arm-none-eabi/lib/armv7-ar/thumb/softfp\libc.a(lib_a-atoi.o)
_svfiprintf_r                                     d:/rt-threadstudio/repo/extract/toolchain_support_packages/arm/gnu_tools_for_arm_embedded_processors/5.4.1/bin/../lib/gcc/arm-none-eabi/5.4.1/../../../../arm-none-eabi/lib/armv7-ar/thumb/softfp\libc.a(lib_a-svfiprintf.o)
_svfprintf_r                                      d:/rt-threadstudio/repo/extract/toolchain_support_packages/arm/gnu_tools_for_arm_embedded_processors/5.4.1/bin/../lib/gcc/arm-none-eabi/5.4.1/../../../../arm-none-eabi/lib/armv7-ar/thumb/softfp\libc.a(lib_a-svfprintf.o)
                                                  d:/rt-threadstudio/repo/extract/toolchain_support_packages/arm/gnu_tools_for_arm_embedded_processors/5.4.1/bin/../lib/gcc/arm-none-eabi/5.4.1/../../../../arm-none-eabi/lib/armv7-ar/thumb/softfp\libc.a(lib_a-snprintf.o)
_syscall_table_begin                              ./rt-thread/components/finsh/shell.o
                                                  ./rt-thread/components/finsh/msh.o
                                                  ./rt-thread/components/finsh/cmd.o
_syscall_table_end                                ./rt-thread/components/finsh/shell.o
                                                  ./rt-thread/components/finsh/msh.o
                                                  ./rt-thread/components/finsh/cmd.o
_unlink_r                                         ./rt-thread/components/libc/compilers/gcc/newlib/syscalls.o
_unsetenv_r                                       d:/rt-threadstudio/repo/extract/toolchain_support_packages/arm/gnu_tools_for_arm_embedded_processors/5.4.1/bin/../lib/gcc/arm-none-eabi/5.4.1/../../../../arm-none-eabi/lib/armv7-ar/thumb/softfp\libc.a(lib_a-setenv_r.o)
_wait_r                                           ./rt-thread/components/libc/compilers/gcc/newlib/syscalls.o
_wctomb_r                                         d:/rt-threadstudio/repo/extract/toolchain_support_packages/arm/gnu_tools_for_arm_embedded_processors/5.4.1/bin/../lib/gcc/arm-none-eabi/5.4.1/../../../../arm-none-eabi/lib/armv7-ar/thumb/softfp\libc.a(lib_a-wctomb_r.o)
_write_r                                          ./rt-thread/components/libc/compilers/gcc/newlib/syscalls.o
                                                  d:/rt-threadstudio/repo/extract/toolchain_support_packages/arm/gnu_tools_for_arm_embedded_processors/5.4.1/bin/../lib/gcc/arm-none-eabi/5.4.1/../../../../arm-none-eabi/lib/armv7-ar/thumb/softfp\libc.a(lib_a-stdio.o)
access                                            ./rt-thread/components/dfs/src/dfs_posix.o
asctime                                           ./rt-thread/components/libc/compilers/common/time.o
asctime_r                                         ./rt-thread/components/libc/compilers/common/time.o
atexit                                            d:/rt-threadstudio/repo/extract/toolchain_support_packages/arm/gnu_tools_for_arm_embedded_processors/5.4.1/bin/../lib/gcc/arm-none-eabi/5.4.1/../../../../arm-none-eabi/lib/armv7-ar/thumb/softfp\libc.a(lib_a-atexit.o)
                                                  d:/rt-threadstudio/repo/extract/toolchain_support_packages/arm/gnu_tools_for_arm_embedded_processors/5.4.1/bin/../lib/gcc/arm-none-eabi/5.4.1/../../../../arm-none-eabi/lib/armv7-ar/thumb/softfp\libc.a(lib_a-__call_atexit.o)
                                                  d:/rt-threadstudio/repo/extract/toolchain_support_packages/arm/gnu_tools_for_arm_embedded_processors/5.4.1/bin/../lib/gcc/arm-none-eabi/5.4.1/../../../../arm-none-eabi/lib/armv7-ar/thumb/softfp/crt0.o
atoi                                              d:/rt-threadstudio/repo/extract/toolchain_support_packages/arm/gnu_tools_for_arm_embedded_processors/5.4.1/bin/../lib/gcc/arm-none-eabi/5.4.1/../../../../arm-none-eabi/lib/armv7-ar/thumb/softfp\libc.a(lib_a-atoi.o)
                                                  ./rt-thread/components/drivers/serial/serial.o
                                                  ./rt-thread/components/finsh/msh_file.o
cat                                               ./rt-thread/components/dfs/src/dfs_file.o
                                                  ./rt-thread/components/finsh/msh_file.o
chdir                                             ./rt-thread/components/dfs/src/dfs_posix.o
                                                  ./rt-thread/components/finsh/msh_file.o
clock                                             ./rt-thread/components/libc/compilers/common/time.o
clock_getres                                      ./rt-thread/components/libc/compilers/common/time.o
clock_gettime                                     ./rt-thread/components/libc/compilers/common/time.o
clock_settime                                     ./rt-thread/components/libc/compilers/common/time.o
close                                             ./rt-thread/components/dfs/src/dfs_posix.o
                                                  ./rt-thread/components/drivers/src/pipe.o
                                                  ./rt-thread/components/finsh/msh_file.o
                                                  ./rt-thread/components/libc/compilers/gcc/newlib/syscalls.o
closedir                                          ./rt-thread/components/dfs/src/dfs_posix.o
                                                  ./rt-thread/components/finsh/msh_file.o
                                                  ./rt-thread/components/finsh/msh.o
cmd_free                                          ./rt-thread/components/finsh/msh.o
cmd_ps                                            ./rt-thread/components/finsh/msh.o
copy                                              ./rt-thread/components/dfs/src/dfs_file.o
                                                  ./rt-thread/components/finsh/msh_file.o
ctime                                             ./rt-thread/components/libc/compilers/common/time.o
ctime_r                                           ./rt-thread/components/libc/compilers/common/time.o
data_init                                         ./rt-thread/libcpu/arm/am335x/start_gcc.o
                                                  ./HALCoGen/source/sys_startup.o
devfs_init                                        ./rt-thread/components/dfs/filesystems/devfs/devfs.o
                                                  ./rt-thread/components/dfs/src/dfs.o
df                                                ./rt-thread/components/dfs/src/dfs_fs.o
                                                  ./rt-thread/components/finsh/msh_file.o
dfs_device_fs_close                               ./rt-thread/components/dfs/filesystems/devfs/devfs.o
dfs_device_fs_getdents                            ./rt-thread/components/dfs/filesystems/devfs/devfs.o
dfs_device_fs_ioctl                               ./rt-thread/components/dfs/filesystems/devfs/devfs.o
dfs_device_fs_mount                               ./rt-thread/components/dfs/filesystems/devfs/devfs.o
dfs_device_fs_open                                ./rt-thread/components/dfs/filesystems/devfs/devfs.o
dfs_device_fs_read                                ./rt-thread/components/dfs/filesystems/devfs/devfs.o
dfs_device_fs_stat                                ./rt-thread/components/dfs/filesystems/devfs/devfs.o
dfs_device_fs_write                               ./rt-thread/components/dfs/filesystems/devfs/devfs.o
dfs_fdtable_get                                   ./rt-thread/components/dfs/src/dfs.o
dfs_file_close                                    ./rt-thread/components/dfs/src/dfs_file.o
                                                  ./rt-thread/components/dfs/src/dfs_posix.o
                                                  ./rt-thread/components/dfs/src/dfs_fs.o
dfs_file_flush                                    ./rt-thread/components/dfs/src/dfs_file.o
                                                  ./rt-thread/components/dfs/src/dfs_posix.o
dfs_file_ftruncate                                ./rt-thread/components/dfs/src/dfs_file.o
                                                  ./rt-thread/components/dfs/src/dfs_posix.o
dfs_file_getdents                                 ./rt-thread/components/dfs/src/dfs_file.o
                                                  ./rt-thread/components/dfs/src/dfs_posix.o
dfs_file_ioctl                                    ./rt-thread/components/dfs/src/dfs_file.o
                                                  ./rt-thread/components/dfs/src/dfs_posix.o
dfs_file_lseek                                    ./rt-thread/components/dfs/src/dfs_file.o
                                                  ./rt-thread/components/dfs/src/dfs_posix.o
dfs_file_open                                     ./rt-thread/components/dfs/src/dfs_file.o
                                                  ./rt-thread/components/dfs/src/dfs_posix.o
                                                  ./rt-thread/components/dfs/src/dfs_fs.o
dfs_file_read                                     ./rt-thread/components/dfs/src/dfs_file.o
                                                  ./rt-thread/components/dfs/src/dfs_posix.o
dfs_file_rename                                   ./rt-thread/components/dfs/src/dfs_file.o
                                                  ./rt-thread/components/dfs/src/dfs_posix.o
dfs_file_stat                                     ./rt-thread/components/dfs/src/dfs_file.o
                                                  ./rt-thread/components/dfs/src/dfs_posix.o
dfs_file_unlink                                   ./rt-thread/components/dfs/src/dfs_file.o
                                                  ./rt-thread/components/dfs/src/dfs_posix.o
dfs_file_write                                    ./rt-thread/components/dfs/src/dfs_file.o
                                                  ./rt-thread/components/dfs/src/dfs_posix.o
dfs_filesystem_get_mounted_path                   ./rt-thread/components/dfs/src/dfs_fs.o
dfs_filesystem_get_partition                      ./rt-thread/components/dfs/src/dfs_fs.o
dfs_filesystem_lookup                             ./rt-thread/components/dfs/src/dfs_fs.o
                                                  ./rt-thread/components/dfs/src/dfs_file.o
                                                  ./rt-thread/components/dfs/src/dfs.o
dfs_init                                          ./rt-thread/components/dfs/src/dfs.o
dfs_lock                                          ./rt-thread/components/dfs/src/dfs.o
                                                  ./rt-thread/components/dfs/src/dfs_posix.o
                                                  ./rt-thread/components/dfs/src/dfs_fs.o
dfs_mkfs                                          ./rt-thread/components/dfs/src/dfs_fs.o
                                                  ./rt-thread/components/finsh/msh_file.o
dfs_mount                                         ./rt-thread/components/dfs/src/dfs_fs.o
                                                  ./rt-thread/components/dfs/src/dfs.o
                                                  ./rt-thread/components/finsh/msh_file.o
dfs_normalize_path                                ./rt-thread/components/dfs/src/dfs.o
                                                  ./rt-thread/components/dfs/src/dfs_posix.o
                                                  ./rt-thread/components/dfs/src/dfs_fs.o
                                                  ./rt-thread/components/dfs/src/dfs_file.o
dfs_register                                      ./rt-thread/components/dfs/src/dfs_fs.o
                                                  ./rt-thread/components/dfs/filesystems/devfs/devfs.o
dfs_statfs                                        ./rt-thread/components/dfs/src/dfs_fs.o
                                                  ./rt-thread/components/dfs/src/dfs_posix.o
dfs_subdir                                        ./rt-thread/components/dfs/src/dfs.o
                                                  ./rt-thread/components/dfs/src/dfs_file.o
dfs_unlock                                        ./rt-thread/components/dfs/src/dfs.o
                                                  ./rt-thread/components/dfs/src/dfs_posix.o
                                                  ./rt-thread/components/dfs/src/dfs_fs.o
dfs_unmount                                       ./rt-thread/components/dfs/src/dfs_fs.o
                                                  ./rt-thread/components/finsh/msh_file.o
dwdClearFlag                                      ./HALCoGen/source/rti.o
dwdCounterEnable                                  ./HALCoGen/source/rti.o
dwdGenerateSysReset                               ./HALCoGen/source/rti.o
dwdGetStatus                                      ./HALCoGen/source/rti.o
dwdGetViolationStatus                             ./HALCoGen/source/rti.o
dwdInit                                           ./HALCoGen/source/rti.o
dwdReset                                          ./HALCoGen/source/rti.o
dwdSetPreload                                     ./HALCoGen/source/rti.o
dwwdGetCurrentDownCounter                         ./HALCoGen/source/rti.o
dwwdInit                                          ./HALCoGen/source/rti.o
entry                                             ./rt-thread/src/components.o
                                                  ./HALCoGen/source/sys_startup.o
environ                                           d:/rt-threadstudio/repo/extract/toolchain_support_packages/arm/gnu_tools_for_arm_embedded_processors/5.4.1/bin/../lib/gcc/arm-none-eabi/5.4.1/../../../../arm-none-eabi/lib/armv7-ar/thumb/softfp\libc.a(lib_a-environ.o)
                                                  d:/rt-threadstudio/repo/extract/toolchain_support_packages/arm/gnu_tools_for_arm_embedded_processors/5.4.1/bin/../lib/gcc/arm-none-eabi/5.4.1/../../../../arm-none-eabi/lib/armv7-ar/thumb/softfp\libc.a(lib_a-getenv_r.o)
                                                  d:/rt-threadstudio/repo/extract/toolchain_support_packages/arm/gnu_tools_for_arm_embedded_processors/5.4.1/bin/../lib/gcc/arm-none-eabi/5.4.1/../../../../arm-none-eabi/lib/armv7-ar/thumb/softfp\libc.a(lib_a-setenv_r.o)
exit                                              d:/rt-threadstudio/repo/extract/toolchain_support_packages/arm/gnu_tools_for_arm_embedded_processors/5.4.1/bin/../lib/gcc/arm-none-eabi/5.4.1/../../../../arm-none-eabi/lib/armv7-ar/thumb/softfp\libc.a(lib_a-exit.o)
                                                  d:/rt-threadstudio/repo/extract/toolchain_support_packages/arm/gnu_tools_for_arm_embedded_processors/5.4.1/bin/../lib/gcc/arm-none-eabi/5.4.1/../../../../arm-none-eabi/lib/armv7-ar/thumb/softfp/crt0.o
fclose                                            d:/rt-threadstudio/repo/extract/toolchain_support_packages/arm/gnu_tools_for_arm_embedded_processors/5.4.1/bin/../lib/gcc/arm-none-eabi/5.4.1/../../../../arm-none-eabi/lib/armv7-ar/thumb/softfp\libc.a(lib_a-fclose.o)
                                                  ./rt-thread/components/libc/compilers/gcc/newlib/stdio.o
fcntl                                             ./rt-thread/components/dfs/src/dfs_posix.o
fd_get                                            ./rt-thread/components/dfs/src/dfs.o
                                                  ./rt-thread/components/dfs/src/dfs_posix.o
                                                  ./rt-thread/components/dfs/src/dfs_poll.o
fd_is_open                                        ./rt-thread/components/dfs/src/dfs.o
                                                  ./rt-thread/components/dfs/src/dfs_file.o
fd_new                                            ./rt-thread/components/dfs/src/dfs.o
                                                  ./rt-thread/components/dfs/src/dfs_posix.o
fd_put                                            ./rt-thread/components/dfs/src/dfs.o
                                                  ./rt-thread/components/dfs/src/dfs_posix.o
                                                  ./rt-thread/components/dfs/src/dfs_poll.o
fflush                                            d:/rt-threadstudio/repo/extract/toolchain_support_packages/arm/gnu_tools_for_arm_embedded_processors/5.4.1/bin/../lib/gcc/arm-none-eabi/5.4.1/../../../../arm-none-eabi/lib/armv7-ar/thumb/softfp\libc.a(lib_a-fflush.o)
                                                  d:/rt-threadstudio/repo/extract/toolchain_support_packages/arm/gnu_tools_for_arm_embedded_processors/5.4.1/bin/../lib/gcc/arm-none-eabi/5.4.1/../../../../arm-none-eabi/lib/armv7-ar/thumb/softfp\libc.a(lib_a-refill.o)
fileno                                            d:/rt-threadstudio/repo/extract/toolchain_support_packages/arm/gnu_tools_for_arm_embedded_processors/5.4.1/bin/../lib/gcc/arm-none-eabi/5.4.1/../../../../arm-none-eabi/lib/armv7-ar/thumb/softfp\libc.a(lib_a-fileno.o)
                                                  ./rt-thread/components/libc/compilers/gcc/newlib/stdio.o
filesystem_operation_table                        ./rt-thread/components/dfs/src/dfs.o
                                                  ./rt-thread/components/dfs/src/dfs_fs.o
filesystem_table                                  ./rt-thread/components/dfs/src/dfs.o
                                                  ./rt-thread/components/dfs/src/dfs_fs.o
                                                  ./rt-thread/components/finsh/msh_file.o
finsh_get_echo                                    ./rt-thread/components/finsh/shell.o
finsh_get_prompt                                  ./rt-thread/components/finsh/shell.o
finsh_get_prompt_mode                             ./rt-thread/components/finsh/shell.o
finsh_getchar                                     ./rt-thread/components/finsh/shell.o
finsh_set_echo                                    ./rt-thread/components/finsh/shell.o
finsh_set_prompt                                  ./rt-thread/components/finsh/shell.o
finsh_set_prompt_mode                             ./rt-thread/components/finsh/shell.o
finsh_system_function_init                        ./rt-thread/components/finsh/shell.o
finsh_system_init                                 ./rt-thread/components/finsh/shell.o
finsh_thread_entry                                ./rt-thread/components/finsh/shell.o
flock                                             ./rt-thread/components/libc/compilers/gcc/newlib/syscalls.o
fopen                                             d:/rt-threadstudio/repo/extract/toolchain_support_packages/arm/gnu_tools_for_arm_embedded_processors/5.4.1/bin/../lib/gcc/arm-none-eabi/5.4.1/../../../../arm-none-eabi/lib/armv7-ar/thumb/softfp\libc.a(lib_a-fopen.o)
                                                  ./rt-thread/components/libc/compilers/gcc/newlib/stdio.o
free                                              d:/rt-threadstudio/repo/extract/toolchain_support_packages/arm/gnu_tools_for_arm_embedded_processors/5.4.1/bin/../lib/gcc/arm-none-eabi/5.4.1/../../../../arm-none-eabi/lib/armv7-ar/thumb/softfp\libc.a(lib_a-malloc.o)
                                                  d:/rt-threadstudio/repo/extract/toolchain_support_packages/arm/gnu_tools_for_arm_embedded_processors/5.4.1/bin/../lib/gcc/arm-none-eabi/5.4.1/../../../../arm-none-eabi/lib/armv7-ar/thumb/softfp\libc.a(lib_a-__call_atexit.o)
fseek                                             d:/rt-threadstudio/repo/extract/toolchain_support_packages/arm/gnu_tools_for_arm_embedded_processors/5.4.1/bin/../lib/gcc/arm-none-eabi/5.4.1/../../../../arm-none-eabi/lib/armv7-ar/thumb/softfp\libc.a(lib_a-fseek.o)
fseeko                                            d:/rt-threadstudio/repo/extract/toolchain_support_packages/arm/gnu_tools_for_arm_embedded_processors/5.4.1/bin/../lib/gcc/arm-none-eabi/5.4.1/../../../../arm-none-eabi/lib/armv7-ar/thumb/softfp\libc.a(lib_a-fseeko.o)
fstat                                             ./rt-thread/components/dfs/src/dfs_posix.o
fsync                                             ./rt-thread/components/dfs/src/dfs_posix.o
ftruncate                                         ./rt-thread/components/dfs/src/dfs_posix.o
getc                                              d:/rt-threadstudio/repo/extract/toolchain_support_packages/arm/gnu_tools_for_arm_embedded_processors/5.4.1/bin/../lib/gcc/arm-none-eabi/5.4.1/../../../../arm-none-eabi/lib/armv7-ar/thumb/softfp\libc.a(lib_a-getc.o)
                                                  ./rt-thread/components/drivers/serial/serial.o
getcwd                                            ./rt-thread/components/dfs/src/dfs_posix.o
                                                  ./rt-thread/components/finsh/shell.o
                                                  ./rt-thread/components/finsh/msh.o
getegid                                           ./rt-thread/components/libc/compilers/common/unistd.o
geteuid                                           ./rt-thread/components/libc/compilers/common/unistd.o
getgid                                            ./rt-thread/components/libc/compilers/common/unistd.o
getpid                                            ./rt-thread/components/libc/compilers/common/unistd.o
getppid                                           ./rt-thread/components/libc/compilers/common/unistd.o
gettid                                            ./rt-thread/components/libc/compilers/common/unistd.o
gettimeofday                                      ./rt-thread/components/libc/compilers/common/time.o
getuid                                            ./rt-thread/components/libc/compilers/common/unistd.o
gioDisableNotification                            ./HALCoGen/source/gio.o
gioEnableNotification                             ./HALCoGen/source/gio.o
gioGetBit                                         ./HALCoGen/source/gio.o
gioGetPort                                        ./HALCoGen/source/gio.o
gioInit                                           ./HALCoGen/source/gio.o
gioSetBit                                         ./HALCoGen/source/gio.o
gioSetDirection                                   ./HALCoGen/source/gio.o
gioSetPort                                        ./HALCoGen/source/gio.o
gioToggleBit                                      ./HALCoGen/source/gio.o
gmtime                                            ./rt-thread/components/libc/compilers/common/time.o
gmtime_r                                          ./rt-thread/components/libc/compilers/common/time.o
hardware_init_hook                                d:/rt-threadstudio/repo/extract/toolchain_support_packages/arm/gnu_tools_for_arm_embedded_processors/5.4.1/bin/../lib/gcc/arm-none-eabi/5.4.1/../../../../arm-none-eabi/lib/armv7-ar/thumb/softfp/crt0.o
hello                                             ./rt-thread/components/finsh/cmd.o
ioctl                                             ./rt-thread/components/dfs/src/dfs_posix.o
irq_desc                                          ./rt-thread/libcpu/arm/am335x/interrupt.o
                                                  ./rt-thread/libcpu/arm/am335x/trap.o
isatty                                            ./rt-thread/components/libc/compilers/common/unistd.o
libc_stdio_get_console                            ./rt-thread/components/libc/compilers/gcc/newlib/stdio.o
                                                  ./rt-thread/components/dfs/src/dfs.o
                                                  ./rt-thread/components/libc/compilers/gcc/newlib/syscalls.o
libc_stdio_set_console                            ./rt-thread/components/libc/compilers/gcc/newlib/stdio.o
                                                  ./rt-thread/components/libc/compilers/gcc/newlib/libc.o
libc_system_init                                  ./rt-thread/components/libc/compilers/gcc/newlib/libc.o
list                                              ./rt-thread/components/finsh/cmd.o
list_device                                       ./rt-thread/components/finsh/cmd.o
list_event                                        ./rt-thread/components/finsh/cmd.o
list_fd                                           ./rt-thread/components/dfs/src/dfs.o
list_mailbox                                      ./rt-thread/components/finsh/cmd.o
list_mem                                          ./rt-thread/src/mem.o
                                                  ./rt-thread/components/finsh/msh.o
list_mempool                                      ./rt-thread/components/finsh/cmd.o
list_msgqueue                                     ./rt-thread/components/finsh/cmd.o
list_mutex                                        ./rt-thread/components/finsh/cmd.o
list_sem                                          ./rt-thread/components/finsh/cmd.o
list_thread                                       ./rt-thread/components/finsh/cmd.o
                                                  ./rt-thread/components/finsh/msh.o
                                                  ./rt-thread/libcpu/arm/am335x/trap.o
list_timer                                        ./rt-thread/components/finsh/cmd.o
localeconv                                        d:/rt-threadstudio/repo/extract/toolchain_support_packages/arm/gnu_tools_for_arm_embedded_processors/5.4.1/bin/../lib/gcc/arm-none-eabi/5.4.1/../../../../arm-none-eabi/lib/armv7-ar/thumb/softfp\libc.a(lib_a-localeconv.o)
localtime                                         ./rt-thread/components/libc/compilers/common/time.o
localtime_r                                       ./rt-thread/components/libc/compilers/common/time.o
ls                                                ./rt-thread/components/dfs/src/dfs_file.o
                                                  ./rt-thread/components/finsh/msh_file.o
lseek                                             ./rt-thread/components/dfs/src/dfs_posix.o
                                                  ./rt-thread/components/finsh/msh_file.o
                                                  ./rt-thread/components/libc/compilers/gcc/newlib/syscalls.o
main                                              ./applications/main.o
                                                  ./rt-thread/src/components.o
                                                  d:/rt-threadstudio/repo/extract/toolchain_support_packages/arm/gnu_tools_for_arm_embedded_processors/5.4.1/bin/../lib/gcc/arm-none-eabi/5.4.1/../../../../arm-none-eabi/lib/armv7-ar/thumb/softfp/crt0.o
main_thread_entry                                 ./rt-thread/src/components.o
malloc                                            d:/rt-threadstudio/repo/extract/toolchain_support_packages/arm/gnu_tools_for_arm_embedded_processors/5.4.1/bin/../lib/gcc/arm-none-eabi/5.4.1/../../../../arm-none-eabi/lib/armv7-ar/thumb/softfp\libc.a(lib_a-malloc.o)
                                                  d:/rt-threadstudio/repo/extract/toolchain_support_packages/arm/gnu_tools_for_arm_embedded_processors/5.4.1/bin/../lib/gcc/arm-none-eabi/5.4.1/../../../../arm-none-eabi/lib/armv7-ar/thumb/softfp\libc.a(lib_a-__atexit.o)
                                                  d:/rt-threadstudio/repo/extract/toolchain_support_packages/arm/gnu_tools_for_arm_embedded_processors/5.4.1/bin/../lib/gcc/arm-none-eabi/5.4.1/../../../../arm-none-eabi/lib/armv7-ar/thumb/softfp\libc.a(lib_a-setvbuf.o)
mapClocks                                         ./HALCoGen/source/system.o
mdelay                                            ./rt-thread/components/libc/compilers/common/delay.o
memchr                                            d:/rt-threadstudio/repo/extract/toolchain_support_packages/arm/gnu_tools_for_arm_embedded_processors/5.4.1/bin/../lib/gcc/arm-none-eabi/5.4.1/../../../../arm-none-eabi/lib/armv7-ar/thumb/softfp\libc.a(lib_a-memchr-stub.o)
                                                  d:/rt-threadstudio/repo/extract/toolchain_support_packages/arm/gnu_tools_for_arm_embedded_processors/5.4.1/bin/../lib/gcc/arm-none-eabi/5.4.1/../../../../arm-none-eabi/lib/armv7-ar/thumb/softfp\libc.a(lib_a-svfiprintf.o)
                                                  d:/rt-threadstudio/repo/extract/toolchain_support_packages/arm/gnu_tools_for_arm_embedded_processors/5.4.1/bin/../lib/gcc/arm-none-eabi/5.4.1/../../../../arm-none-eabi/lib/armv7-ar/thumb/softfp\libc.a(lib_a-fvwrite.o)
                                                  d:/rt-threadstudio/repo/extract/toolchain_support_packages/arm/gnu_tools_for_arm_embedded_processors/5.4.1/bin/../lib/gcc/arm-none-eabi/5.4.1/../../../../arm-none-eabi/lib/armv7-ar/thumb/softfp\libc.a(lib_a-svfprintf.o)
                                                  d:/rt-threadstudio/repo/extract/toolchain_support_packages/arm/gnu_tools_for_arm_embedded_processors/5.4.1/bin/../lib/gcc/arm-none-eabi/5.4.1/../../../../arm-none-eabi/lib/armv7-ar/thumb/softfp\libc.a(lib_a-strstr.o)
memcmp                                            d:/rt-threadstudio/repo/extract/toolchain_support_packages/arm/gnu_tools_for_arm_embedded_processors/5.4.1/bin/../lib/gcc/arm-none-eabi/5.4.1/../../../../arm-none-eabi/lib/armv7-ar/thumb/softfp\libc.a(lib_a-memcmp.o)
                                                  d:/rt-threadstudio/repo/extract/toolchain_support_packages/arm/gnu_tools_for_arm_embedded_processors/5.4.1/bin/../lib/gcc/arm-none-eabi/5.4.1/../../../../arm-none-eabi/lib/armv7-ar/thumb/softfp\libc.a(lib_a-strstr.o)
                                                  ./rt-thread/components/finsh/shell.o
memcpy                                            d:/rt-threadstudio/repo/extract/toolchain_support_packages/arm/gnu_tools_for_arm_embedded_processors/5.4.1/bin/../lib/gcc/arm-none-eabi/5.4.1/../../../../arm-none-eabi/lib/armv7-ar/thumb/softfp\libc.a(lib_a-memcpy.o)
                                                  d:/rt-threadstudio/repo/extract/toolchain_support_packages/arm/gnu_tools_for_arm_embedded_processors/5.4.1/bin/../lib/gcc/arm-none-eabi/5.4.1/../../../../arm-none-eabi/lib/armv7-ar/thumb/softfp\libc.a(lib_a-svfiprintf.o)
                                                  d:/rt-threadstudio/repo/extract/toolchain_support_packages/arm/gnu_tools_for_arm_embedded_processors/5.4.1/bin/../lib/gcc/arm-none-eabi/5.4.1/../../../../arm-none-eabi/lib/armv7-ar/thumb/softfp\libc.a(lib_a-mprec.o)
                                                  d:/rt-threadstudio/repo/extract/toolchain_support_packages/arm/gnu_tools_for_arm_embedded_processors/5.4.1/bin/../lib/gcc/arm-none-eabi/5.4.1/../../../../arm-none-eabi/lib/armv7-ar/thumb/softfp\libc.a(lib_a-fvwrite.o)
                                                  d:/rt-threadstudio/repo/extract/toolchain_support_packages/arm/gnu_tools_for_arm_embedded_processors/5.4.1/bin/../lib/gcc/arm-none-eabi/5.4.1/../../../../arm-none-eabi/lib/armv7-ar/thumb/softfp\libc.a(lib_a-dtoa.o)
                                                  d:/rt-threadstudio/repo/extract/toolchain_support_packages/arm/gnu_tools_for_arm_embedded_processors/5.4.1/bin/../lib/gcc/arm-none-eabi/5.4.1/../../../../arm-none-eabi/lib/armv7-ar/thumb/softfp\libc.a(lib_a-strdup_r.o)
                                                  d:/rt-threadstudio/repo/extract/toolchain_support_packages/arm/gnu_tools_for_arm_embedded_processors/5.4.1/bin/../lib/gcc/arm-none-eabi/5.4.1/../../../../arm-none-eabi/lib/armv7-ar/thumb/softfp\libc.a(lib_a-setenv_r.o)
                                                  ./HALCoGen/source/sys_vim.o
                                                  ./rt-thread/components/drivers/src/ringbuffer.o
                                                  ./rt-thread/components/finsh/shell.o
                                                  ./rt-thread/components/finsh/msh_file.o
                                                  ./rt-thread/components/finsh/msh.o
memmove                                           d:/rt-threadstudio/repo/extract/toolchain_support_packages/arm/gnu_tools_for_arm_embedded_processors/5.4.1/bin/../lib/gcc/arm-none-eabi/5.4.1/../../../../arm-none-eabi/lib/armv7-ar/thumb/softfp\libc.a(lib_a-memmove.o)
                                                  d:/rt-threadstudio/repo/extract/toolchain_support_packages/arm/gnu_tools_for_arm_embedded_processors/5.4.1/bin/../lib/gcc/arm-none-eabi/5.4.1/../../../../arm-none-eabi/lib/armv7-ar/thumb/softfp\libc.a(lib_a-svfiprintf.o)
                                                  d:/rt-threadstudio/repo/extract/toolchain_support_packages/arm/gnu_tools_for_arm_embedded_processors/5.4.1/bin/../lib/gcc/arm-none-eabi/5.4.1/../../../../arm-none-eabi/lib/armv7-ar/thumb/softfp\libc.a(lib_a-fvwrite.o)
memoryInit                                        ./HALCoGen/source/sys_startup.o
memset                                            d:/rt-threadstudio/repo/extract/toolchain_support_packages/arm/gnu_tools_for_arm_embedded_processors/5.4.1/bin/../lib/gcc/arm-none-eabi/5.4.1/../../../../arm-none-eabi/lib/armv7-ar/thumb/softfp\libc.a(lib_a-memset.o)
                                                  d:/rt-threadstudio/repo/extract/toolchain_support_packages/arm/gnu_tools_for_arm_embedded_processors/5.4.1/bin/../lib/gcc/arm-none-eabi/5.4.1/../../../../arm-none-eabi/lib/armv7-ar/thumb/softfp\libc.a(lib_a-fseeko.o)
                                                  d:/rt-threadstudio/repo/extract/toolchain_support_packages/arm/gnu_tools_for_arm_embedded_processors/5.4.1/bin/../lib/gcc/arm-none-eabi/5.4.1/../../../../arm-none-eabi/lib/armv7-ar/thumb/softfp\libc.a(lib_a-findfp.o)
                                                  ./rt-thread/components/dfs/src/dfs_posix.o
                                                  ./rt-thread/components/dfs/src/dfs_fs.o
                                                  ./rt-thread/components/dfs/src/dfs_file.o
                                                  ./rt-thread/components/dfs/src/dfs.o
                                                  ./rt-thread/components/finsh/shell.o
                                                  ./rt-thread/components/finsh/msh.o
                                                  d:/rt-threadstudio/repo/extract/toolchain_support_packages/arm/gnu_tools_for_arm_embedded_processors/5.4.1/bin/../lib/gcc/arm-none-eabi/5.4.1/../../../../arm-none-eabi/lib/armv7-ar/thumb/softfp/crt0.o
mkdir                                             ./rt-thread/components/dfs/src/dfs_posix.o
                                                  ./rt-thread/components/dfs/src/dfs_file.o
                                                  ./rt-thread/components/finsh/msh_file.o
                                                  ./rt-thread/components/libc/compilers/gcc/newlib/syscalls.o
mkfifo                                            ./rt-thread/components/drivers/src/pipe.o
mkfs                                              ./rt-thread/components/dfs/src/dfs_fs.o
mktime                                            ./rt-thread/components/libc/compilers/common/time.o
msh_auto_complete                                 ./rt-thread/components/finsh/msh.o
                                                  ./rt-thread/components/finsh/shell.o
msh_auto_complete_path                            ./rt-thread/components/finsh/msh.o
msh_exec                                          ./rt-thread/components/finsh/msh.o
                                                  ./rt-thread/components/finsh/shell.o
                                                  ./rt-thread/components/finsh/msh_file.o
                                                  ./rt-thread/components/libc/compilers/common/stdlib.o
msh_exec_script                                   ./rt-thread/components/finsh/msh_file.o
                                                  ./rt-thread/components/finsh/msh.o
msh_help                                          ./rt-thread/components/finsh/msh.o
msleep                                            ./rt-thread/components/libc/compilers/common/delay.o
ndelay                                            ./rt-thread/components/libc/compilers/common/delay.o
open                                              ./rt-thread/components/dfs/src/dfs_posix.o
                                                  ./rt-thread/components/drivers/src/pipe.o
                                                  ./rt-thread/components/finsh/msh_file.o
                                                  ./rt-thread/components/libc/compilers/gcc/newlib/syscalls.o
opendir                                           ./rt-thread/components/dfs/src/dfs_posix.o
                                                  ./rt-thread/components/finsh/msh_file.o
                                                  ./rt-thread/components/finsh/msh.o
periphInit                                        ./HALCoGen/source/system.o
pipe                                              ./rt-thread/components/drivers/src/pipe.o
poll                                              ./rt-thread/components/dfs/src/dfs_poll.o
                                                  ./rt-thread/components/dfs/src/dfs_select.o
putenv                                            d:/rt-threadstudio/repo/extract/toolchain_support_packages/arm/gnu_tools_for_arm_embedded_processors/5.4.1/bin/../lib/gcc/arm-none-eabi/5.4.1/../../../../arm-none-eabi/lib/armv7-ar/thumb/softfp\libc.a(lib_a-putenv.o)
                                                  ./rt-thread/components/libc/compilers/gcc/newlib/libc.o
puts                                              d:/rt-threadstudio/repo/extract/toolchain_support_packages/arm/gnu_tools_for_arm_embedded_processors/5.4.1/bin/../lib/gcc/arm-none-eabi/5.4.1/../../../../arm-none-eabi/lib/armv7-ar/thumb/softfp\libc.a(lib_a-puts.o)
                                                  ./applications/main.o
read                                              ./rt-thread/components/dfs/src/dfs_posix.o
                                                  ./rt-thread/components/finsh/msh_file.o
                                                  ./rt-thread/components/libc/compilers/gcc/newlib/syscalls.o
readdir                                           ./rt-thread/components/dfs/src/dfs_posix.o
                                                  ./rt-thread/components/finsh/msh_file.o
                                                  ./rt-thread/components/finsh/msh.o
rename                                            ./rt-thread/components/dfs/src/dfs_posix.o
                                                  ./rt-thread/components/finsh/msh_file.o
                                                  ./rt-thread/components/libc/compilers/gcc/newlib/syscalls.o
rewinddir                                         ./rt-thread/components/dfs/src/dfs_posix.o
                                                  ./rt-thread/components/finsh/msh.o
rm                                                ./rt-thread/components/dfs/src/dfs_file.o
rmdir                                             ./rt-thread/components/dfs/src/dfs_posix.o
rt_application_init                               ./rt-thread/src/components.o
rt_assert_handler                                 ./rt-thread/src/kservice.o
                                                  ./rt-thread/components/dfs/filesystems/devfs/devfs.o
                                                  ./rt-thread/components/dfs/src/dfs_select.o
                                                  ./rt-thread/components/dfs/src/dfs_fs.o
                                                  ./rt-thread/components/dfs/src/dfs.o
                                                  ./rt-thread/components/drivers/misc/pin.o
                                                  ./rt-thread/components/drivers/serial/serial.o
                                                  ./rt-thread/components/drivers/src/workqueue.o
                                                  ./rt-thread/components/drivers/src/waitqueue.o
                                                  ./rt-thread/components/drivers/src/ringbuffer.o
                                                  ./rt-thread/components/drivers/src/ringblk_buf.o
                                                  ./rt-thread/components/drivers/src/pipe.o
                                                  ./rt-thread/components/drivers/src/dataqueue.o
                                                  ./rt-thread/components/drivers/src/completion.o
                                                  ./rt-thread/components/finsh/shell.o
                                                  ./rt-thread/components/finsh/msh.o
                                                  ./rt-thread/components/libc/compilers/common/time.o
                                                  ./rt-thread/libcpu/arm/common/showmem.o
                                                  ./rt-thread/src/timer.o
                                                  ./rt-thread/src/thread.o
                                                  ./rt-thread/src/scheduler.o
                                                  ./rt-thread/src/object.o
                                                  ./rt-thread/src/mempool.o
                                                  ./rt-thread/src/mem.o
                                                  ./rt-thread/src/ipc.o
                                                  ./rt-thread/src/idle.o
                                                  ./rt-thread/src/device.o
                                                  ./rt-thread/src/components.o
rt_assert_hook                                    ./rt-thread/src/kservice.o
rt_assert_set_hook                                ./rt-thread/src/kservice.o
rt_calloc                                         ./rt-thread/src/mem.o
                                                  ./rt-thread/components/dfs/src/dfs_select.o
                                                  ./rt-thread/components/dfs/src/dfs.o
                                                  ./rt-thread/components/finsh/shell.o
                                                  ./rt-thread/components/libc/compilers/gcc/newlib/syscalls.o
rt_completion_done                                ./rt-thread/components/drivers/src/completion.o
                                                  ./rt-thread/components/drivers/serial/serial.o
rt_completion_init                                ./rt-thread/components/drivers/src/completion.o
                                                  ./rt-thread/components/drivers/serial/serial.o
rt_completion_wait                                ./rt-thread/components/drivers/src/completion.o
                                                  ./rt-thread/components/drivers/serial/serial.o
rt_components_board_init                          ./rt-thread/src/components.o
rt_components_init                                ./rt-thread/src/components.o
rt_console_get_device                             ./rt-thread/src/kservice.o
                                                  ./rt-thread/components/libc/compilers/gcc/newlib/libc.o
rt_console_set_device                             ./rt-thread/src/kservice.o
                                                  ./drivers/board.o
rt_critical_level                                 ./rt-thread/src/scheduler.o
rt_current_priority                               ./rt-thread/src/scheduler.o
rt_current_thread                                 ./rt-thread/src/scheduler.o
                                                  ./rt-thread/src/thread.o
rt_data_queue_deinit                              ./rt-thread/components/drivers/src/dataqueue.o
                                                  ./rt-thread/components/drivers/serial/serial.o
rt_data_queue_init                                ./rt-thread/components/drivers/src/dataqueue.o
                                                  ./rt-thread/components/drivers/serial/serial.o
rt_data_queue_len                                 ./rt-thread/components/drivers/src/dataqueue.o
rt_data_queue_peek                                ./rt-thread/components/drivers/src/dataqueue.o
                                                  ./rt-thread/components/drivers/serial/serial.o
rt_data_queue_pop                                 ./rt-thread/components/drivers/src/dataqueue.o
                                                  ./rt-thread/components/drivers/serial/serial.o
rt_data_queue_push                                ./rt-thread/components/drivers/src/dataqueue.o
                                                  ./rt-thread/components/drivers/serial/serial.o
rt_data_queue_reset                               ./rt-thread/components/drivers/src/dataqueue.o
rt_device_close                                   ./rt-thread/src/device.o
                                                  ./rt-thread/components/dfs/filesystems/devfs/devfs.o
                                                  ./rt-thread/components/dfs/src/dfs_fs.o
                                                  ./rt-thread/components/drivers/serial/serial.o
                                                  ./rt-thread/src/kservice.o
rt_device_control                                 ./rt-thread/src/device.o
                                                  ./drivers/drv_uart.o
                                                  ./rt-thread/components/dfs/filesystems/devfs/devfs.o
                                                  ./rt-thread/components/drivers/serial/serial.o
rt_device_create                                  ./rt-thread/src/device.o
rt_device_destroy                                 ./rt-thread/src/device.o
rt_device_find                                    ./rt-thread/src/device.o
                                                  ./rt-thread/components/dfs/filesystems/devfs/devfs.o
                                                  ./rt-thread/components/dfs/src/dfs_fs.o
                                                  ./rt-thread/components/drivers/src/pipe.o
                                                  ./rt-thread/src/kservice.o
rt_device_init                                    ./rt-thread/src/device.o
rt_device_open                                    ./rt-thread/src/device.o
                                                  ./rt-thread/components/dfs/filesystems/devfs/devfs.o
                                                  ./rt-thread/components/dfs/src/dfs_fs.o
                                                  ./rt-thread/components/drivers/serial/serial.o
                                                  ./rt-thread/src/kservice.o
rt_device_pin_register                            ./rt-thread/components/drivers/misc/pin.o
rt_device_read                                    ./rt-thread/src/device.o
                                                  ./rt-thread/components/dfs/filesystems/devfs/devfs.o
                                                  ./rt-thread/components/drivers/serial/serial.o
rt_device_register                                ./rt-thread/src/device.o
                                                  ./rt-thread/components/drivers/misc/pin.o
                                                  ./rt-thread/components/drivers/serial/serial.o
                                                  ./rt-thread/components/drivers/src/pipe.o
rt_device_set_rx_indicate                         ./rt-thread/src/device.o
                                                  ./rt-thread/components/drivers/serial/serial.o
rt_device_set_tx_complete                         ./rt-thread/src/device.o
rt_device_unregister                              ./rt-thread/src/device.o
                                                  ./rt-thread/components/drivers/src/pipe.o
rt_device_write                                   ./rt-thread/src/device.o
                                                  ./rt-thread/components/dfs/filesystems/devfs/devfs.o
                                                  ./rt-thread/components/drivers/serial/serial.o
                                                  ./rt-thread/src/kservice.o
rt_enter_critical                                 ./rt-thread/src/scheduler.o
                                                  ./rt-thread/components/dfs/filesystems/devfs/devfs.o
                                                  ./rt-thread/components/dfs/src/dfs.o
                                                  ./rt-thread/components/drivers/src/workqueue.o
                                                  ./rt-thread/components/drivers/src/dataqueue.o
                                                  ./rt-thread/src/object.o
rt_event_control                                  ./rt-thread/src/ipc.o
rt_event_create                                   ./rt-thread/src/ipc.o
rt_event_delete                                   ./rt-thread/src/ipc.o
rt_event_detach                                   ./rt-thread/src/ipc.o
rt_event_init                                     ./rt-thread/src/ipc.o
rt_event_recv                                     ./rt-thread/src/ipc.o
rt_event_send                                     ./rt-thread/src/ipc.o
rt_exit_critical                                  ./rt-thread/src/scheduler.o
                                                  ./rt-thread/components/dfs/filesystems/devfs/devfs.o
                                                  ./rt-thread/components/dfs/src/dfs.o
                                                  ./rt-thread/components/drivers/src/workqueue.o
                                                  ./rt-thread/components/drivers/src/dataqueue.o
                                                  ./rt-thread/src/object.o
rt_free                                           ./rt-thread/src/mem.o
                                                  ./rt-thread/components/dfs/filesystems/devfs/devfs.o
                                                  ./rt-thread/components/dfs/src/dfs_select.o
                                                  ./rt-thread/components/dfs/src/dfs_posix.o
                                                  ./rt-thread/components/dfs/src/dfs_poll.o
                                                  ./rt-thread/components/dfs/src/dfs_fs.o
                                                  ./rt-thread/components/dfs/src/dfs_file.o
                                                  ./rt-thread/components/dfs/src/dfs.o
                                                  ./rt-thread/components/drivers/serial/serial.o
                                                  ./rt-thread/components/drivers/src/workqueue.o
                                                  ./rt-thread/components/drivers/src/ringbuffer.o
                                                  ./rt-thread/components/drivers/src/ringblk_buf.o
                                                  ./rt-thread/components/drivers/src/pipe.o
                                                  ./rt-thread/components/drivers/src/dataqueue.o
                                                  ./rt-thread/components/finsh/shell.o
                                                  ./rt-thread/components/finsh/msh_file.o
                                                  ./rt-thread/components/finsh/msh.o
                                                  ./rt-thread/components/libc/compilers/common/stdlib.o
                                                  ./rt-thread/components/libc/compilers/gcc/newlib/syscalls.o
                                                  ./rt-thread/src/object.o
                                                  ./rt-thread/src/mempool.o
                                                  ./rt-thread/src/kservice.o
                                                  ./rt-thread/src/ipc.o
                                                  ./rt-thread/src/idle.o
                                                  ./rt-thread/src/device.o
rt_free_align                                     ./rt-thread/src/kservice.o
rt_free_sethook                                   ./rt-thread/src/mem.o
rt_get_errno                                      ./rt-thread/src/kservice.o
rt_hw_backtrace                                   ./rt-thread/libcpu/arm/common/backtrace.o
rt_hw_board_init                                  ./drivers/board.o
                                                  ./rt-thread/src/components.o
rt_hw_console_output                              ./rt-thread/src/kservice.o
rt_hw_context_switch                              ./rt-thread/libcpu/arm/am335x/context_gcc.o
                                                  ./rt-thread/src/scheduler.o
rt_hw_context_switch_interrupt                    ./rt-thread/libcpu/arm/am335x/context_gcc.o
                                                  ./rt-thread/src/scheduler.o
rt_hw_context_switch_interrupt_do                 ./rt-thread/libcpu/arm/am335x/context_gcc.o
rt_hw_context_switch_to                           ./rt-thread/libcpu/arm/am335x/context_gcc.o
                                                  ./rt-thread/src/scheduler.o
rt_hw_cpu_reset                                   ./rt-thread/libcpu/arm/am335x/cpu.o
rt_hw_cpu_shutdown                                ./rt-thread/libcpu/arm/am335x/cpu.o
                                                  ./rt-thread/libcpu/arm/am335x/trap.o
rt_hw_interrupt_disable                           ./rt-thread/libcpu/arm/am335x/context_gcc.o
                                                  ./rt-thread/components/dfs/src/dfs_poll.o
                                                  ./rt-thread/components/drivers/serial/serial.o
                                                  ./rt-thread/components/drivers/src/workqueue.o
                                                  ./rt-thread/components/drivers/src/waitqueue.o
                                                  ./rt-thread/components/drivers/src/ringblk_buf.o
                                                  ./rt-thread/components/drivers/src/dataqueue.o
                                                  ./rt-thread/components/drivers/src/completion.o
                                                  ./rt-thread/components/finsh/cmd.o
                                                  ./rt-thread/components/libc/compilers/common/time.o
                                                  ./rt-thread/src/timer.o
                                                  ./rt-thread/src/thread.o
                                                  ./rt-thread/src/scheduler.o
                                                  ./rt-thread/src/object.o
                                                  ./rt-thread/src/mempool.o
                                                  ./rt-thread/src/mem.o
                                                  ./rt-thread/src/irq.o
                                                  ./rt-thread/src/ipc.o
                                                  ./rt-thread/src/idle.o
                                                  ./rt-thread/src/components.o
                                                  ./rt-thread/src/clock.o
rt_hw_interrupt_enable                            ./rt-thread/libcpu/arm/am335x/context_gcc.o
                                                  ./rt-thread/components/dfs/src/dfs_poll.o
                                                  ./rt-thread/components/drivers/serial/serial.o
                                                  ./rt-thread/components/drivers/src/workqueue.o
                                                  ./rt-thread/components/drivers/src/waitqueue.o
                                                  ./rt-thread/components/drivers/src/ringblk_buf.o
                                                  ./rt-thread/components/drivers/src/dataqueue.o
                                                  ./rt-thread/components/drivers/src/completion.o
                                                  ./rt-thread/components/finsh/cmd.o
                                                  ./rt-thread/components/libc/compilers/common/time.o
                                                  ./rt-thread/src/timer.o
                                                  ./rt-thread/src/thread.o
                                                  ./rt-thread/src/scheduler.o
                                                  ./rt-thread/src/object.o
                                                  ./rt-thread/src/mempool.o
                                                  ./rt-thread/src/mem.o
                                                  ./rt-thread/src/irq.o
                                                  ./rt-thread/src/ipc.o
                                                  ./rt-thread/src/idle.o
                                                  ./rt-thread/src/clock.o
rt_hw_interrupt_init                              ./rt-thread/libcpu/arm/am335x/interrupt.o
rt_hw_interrupt_install                           ./rt-thread/libcpu/arm/am335x/interrupt.o
                                                  ./drivers/drv_uart.o
                                                  ./drivers/board.o
rt_hw_interrupt_mask                              ./rt-thread/libcpu/arm/am335x/interrupt.o
rt_hw_interrupt_umask                             ./rt-thread/libcpu/arm/am335x/interrupt.o
                                                  ./drivers/drv_uart.o
                                                  ./drivers/board.o
rt_hw_serial_isr                                  ./rt-thread/components/drivers/serial/serial.o
                                                  ./drivers/drv_uart.o
rt_hw_serial_register                             ./rt-thread/components/drivers/serial/serial.o
                                                  ./drivers/drv_uart.o
rt_hw_show_memory                                 ./rt-thread/libcpu/arm/common/showmem.o
rt_hw_show_register                               ./rt-thread/libcpu/arm/am335x/trap.o
rt_hw_stack_init                                  ./rt-thread/libcpu/arm/am335x/stack.o
                                                  ./rt-thread/src/thread.o
rt_hw_trap_dabt                                   ./rt-thread/libcpu/arm/am335x/trap.o
                                                  ./rt-thread/libcpu/arm/am335x/start_gcc.o
rt_hw_trap_fiq                                    ./rt-thread/libcpu/arm/am335x/trap.o
rt_hw_trap_irq                                    ./rt-thread/libcpu/arm/am335x/trap.o
                                                  ./rt-thread/libcpu/arm/am335x/context_gcc.o
rt_hw_trap_pabt                                   ./rt-thread/libcpu/arm/am335x/trap.o
                                                  ./rt-thread/libcpu/arm/am335x/start_gcc.o
rt_hw_trap_resv                                   ./rt-thread/libcpu/arm/am335x/trap.o
                                                  ./rt-thread/libcpu/arm/am335x/start_gcc.o
rt_hw_trap_svc                                    ./rt-thread/libcpu/arm/am335x/trap.o
                                                  ./rt-thread/libcpu/arm/am335x/start_gcc.o
rt_hw_trap_udef                                   ./rt-thread/libcpu/arm/am335x/trap.o
rt_hw_uart_init                                   ./drivers/drv_uart.o
                                                  ./drivers/board.o
rt_hw_us_delay                                    ./rt-thread/components/libc/compilers/common/unistd.o
                                                  ./rt-thread/components/libc/compilers/common/delay.o
rt_interrupt_enter                                ./rt-thread/src/irq.o
                                                  ./rt-thread/libcpu/arm/am335x/context_gcc.o
rt_interrupt_enter_sethook                        ./rt-thread/src/irq.o
rt_interrupt_from_thread                          ./rt-thread/libcpu/arm/am335x/interrupt.o
                                                  ./rt-thread/libcpu/arm/am335x/context_gcc.o
rt_interrupt_get_nest                             ./rt-thread/src/irq.o
                                                  ./rt-thread/components/drivers/src/waitqueue.o
                                                  ./rt-thread/components/drivers/src/dataqueue.o
                                                  ./rt-thread/components/drivers/src/completion.o
                                                  ./rt-thread/src/object.o
                                                  ./rt-thread/src/mempool.o
                                                  ./rt-thread/src/mem.o
                                                  ./rt-thread/src/kservice.o
                                                  ./rt-thread/src/ipc.o
                                                  ./rt-thread/src/idle.o
rt_interrupt_leave                                ./rt-thread/src/irq.o
                                                  ./rt-thread/libcpu/arm/am335x/context_gcc.o
rt_interrupt_leave_sethook                        ./rt-thread/src/irq.o
rt_interrupt_nest                                 ./rt-thread/src/irq.o
                                                  ./rt-thread/libcpu/arm/am335x/interrupt.o
                                                  ./rt-thread/src/scheduler.o
rt_interrupt_to_thread                            ./rt-thread/libcpu/arm/am335x/interrupt.o
                                                  ./rt-thread/libcpu/arm/am335x/context_gcc.o
rt_kprintf                                        ./rt-thread/src/kservice.o
                                                  ./rt-thread/components/dfs/src/dfs_posix.o
                                                  ./rt-thread/components/dfs/src/dfs_fs.o
                                                  ./rt-thread/components/dfs/src/dfs_file.o
                                                  ./rt-thread/components/dfs/src/dfs.o
                                                  ./rt-thread/components/drivers/serial/serial.o
                                                  ./rt-thread/components/drivers/src/waitqueue.o
                                                  ./rt-thread/components/drivers/src/dataqueue.o
                                                  ./rt-thread/components/drivers/src/completion.o
                                                  ./rt-thread/components/finsh/shell.o
                                                  ./rt-thread/components/finsh/msh_file.o
                                                  ./rt-thread/components/finsh/msh.o
                                                  ./rt-thread/components/finsh/cmd.o
                                                  ./rt-thread/components/libc/compilers/common/time.o
                                                  ./rt-thread/components/libc/compilers/common/stdlib.o
                                                  ./rt-thread/components/libc/compilers/gcc/newlib/syscalls.o
                                                  ./rt-thread/libcpu/arm/am335x/trap.o
                                                  ./rt-thread/libcpu/arm/am335x/interrupt.o
                                                  ./rt-thread/libcpu/arm/am335x/cpu.o
                                                  ./rt-thread/libcpu/arm/common/showmem.o
                                                  ./rt-thread/libcpu/arm/common/backtrace.o
                                                  ./rt-thread/src/scheduler.o
                                                  ./rt-thread/src/object.o
                                                  ./rt-thread/src/mempool.o
                                                  ./rt-thread/src/mem.o
                                                  ./rt-thread/src/ipc.o
                                                  ./rt-thread/src/idle.o
                                                  ./rt-thread/src/device.o
rt_kputs                                          ./rt-thread/src/kservice.o
rt_malloc                                         ./rt-thread/src/mem.o
                                                  ./rt-thread/components/dfs/filesystems/devfs/devfs.o
                                                  ./rt-thread/components/dfs/src/dfs_posix.o
                                                  ./rt-thread/components/dfs/src/dfs_poll.o
                                                  ./rt-thread/components/dfs/src/dfs_file.o
                                                  ./rt-thread/components/dfs/src/dfs.o
                                                  ./rt-thread/components/drivers/serial/serial.o
                                                  ./rt-thread/components/drivers/src/workqueue.o
                                                  ./rt-thread/components/drivers/src/ringbuffer.o
                                                  ./rt-thread/components/drivers/src/ringblk_buf.o
                                                  ./rt-thread/components/drivers/src/pipe.o
                                                  ./rt-thread/components/drivers/src/dataqueue.o
                                                  ./rt-thread/components/finsh/shell.o
                                                  ./rt-thread/components/finsh/msh_file.o
                                                  ./rt-thread/components/finsh/msh.o
                                                  ./rt-thread/components/libc/compilers/gcc/newlib/syscalls.o
                                                  ./rt-thread/src/thread.o
                                                  ./rt-thread/src/object.o
                                                  ./rt-thread/src/mempool.o
                                                  ./rt-thread/src/kservice.o
                                                  ./rt-thread/src/ipc.o
                                                  ./rt-thread/src/device.o
rt_malloc_align                                   ./rt-thread/src/kservice.o
rt_malloc_sethook                                 ./rt-thread/src/mem.o
rt_mb_control                                     ./rt-thread/src/ipc.o
rt_mb_create                                      ./rt-thread/src/ipc.o
rt_mb_delete                                      ./rt-thread/src/ipc.o
rt_mb_detach                                      ./rt-thread/src/ipc.o
rt_mb_init                                        ./rt-thread/src/ipc.o
rt_mb_recv                                        ./rt-thread/src/ipc.o
rt_mb_send                                        ./rt-thread/src/ipc.o
rt_mb_send_wait                                   ./rt-thread/src/ipc.o
rt_mb_urgent                                      ./rt-thread/src/ipc.o
rt_memcmp                                         ./rt-thread/src/kservice.o
rt_memcpy                                         ./rt-thread/src/kservice.o
                                                  ./rt-thread/components/drivers/serial/serial.o
                                                  ./rt-thread/components/finsh/cmd.o
                                                  ./rt-thread/src/mem.o
                                                  ./rt-thread/src/ipc.o
rt_memmove                                        ./rt-thread/src/kservice.o
                                                  ./rt-thread/components/finsh/shell.o
rt_memory_info                                    ./rt-thread/src/mem.o
rt_memset                                         ./rt-thread/src/kservice.o
                                                  ./rt-thread/components/dfs/src/dfs_select.o
                                                  ./rt-thread/components/drivers/serial/serial.o
                                                  ./rt-thread/components/drivers/src/pipe.o
                                                  ./rt-thread/libcpu/arm/am335x/interrupt.o
                                                  ./rt-thread/src/thread.o
                                                  ./rt-thread/src/object.o
                                                  ./rt-thread/src/mem.o
                                                  ./rt-thread/src/device.o
rt_mp_alloc                                       ./rt-thread/src/mempool.o
rt_mp_alloc_sethook                               ./rt-thread/src/mempool.o
rt_mp_create                                      ./rt-thread/src/mempool.o
rt_mp_delete                                      ./rt-thread/src/mempool.o
rt_mp_detach                                      ./rt-thread/src/mempool.o
rt_mp_free                                        ./rt-thread/src/mempool.o
rt_mp_free_sethook                                ./rt-thread/src/mempool.o
rt_mp_init                                        ./rt-thread/src/mempool.o
rt_mq_control                                     ./rt-thread/src/ipc.o
rt_mq_create                                      ./rt-thread/src/ipc.o
rt_mq_delete                                      ./rt-thread/src/ipc.o
rt_mq_detach                                      ./rt-thread/src/ipc.o
rt_mq_init                                        ./rt-thread/src/ipc.o
rt_mq_recv                                        ./rt-thread/src/ipc.o
rt_mq_send                                        ./rt-thread/src/ipc.o
rt_mq_send_wait                                   ./rt-thread/src/ipc.o
rt_mq_urgent                                      ./rt-thread/src/ipc.o
rt_mutex_control                                  ./rt-thread/src/ipc.o
rt_mutex_create                                   ./rt-thread/src/ipc.o
rt_mutex_delete                                   ./rt-thread/src/ipc.o
rt_mutex_detach                                   ./rt-thread/src/ipc.o
                                                  ./rt-thread/components/drivers/src/pipe.o
rt_mutex_init                                     ./rt-thread/src/ipc.o
                                                  ./rt-thread/components/dfs/src/dfs.o
                                                  ./rt-thread/components/drivers/src/pipe.o
rt_mutex_release                                  ./rt-thread/src/ipc.o
                                                  ./rt-thread/components/dfs/src/dfs.o
                                                  ./rt-thread/components/drivers/src/pipe.o
rt_mutex_take                                     ./rt-thread/src/ipc.o
                                                  ./rt-thread/components/dfs/src/dfs.o
                                                  ./rt-thread/components/drivers/src/pipe.o
rt_mutex_trytake                                  ./rt-thread/src/ipc.o
rt_object_allocate                                ./rt-thread/src/object.o
                                                  ./rt-thread/src/timer.o
                                                  ./rt-thread/src/thread.o
                                                  ./rt-thread/src/mempool.o
                                                  ./rt-thread/src/ipc.o
rt_object_attach_sethook                          ./rt-thread/src/object.o
rt_object_delete                                  ./rt-thread/src/object.o
                                                  ./rt-thread/src/timer.o
                                                  ./rt-thread/src/thread.o
                                                  ./rt-thread/src/mempool.o
                                                  ./rt-thread/src/ipc.o
                                                  ./rt-thread/src/idle.o
rt_object_detach                                  ./rt-thread/src/object.o
                                                  ./rt-thread/src/timer.o
                                                  ./rt-thread/src/thread.o
                                                  ./rt-thread/src/mempool.o
                                                  ./rt-thread/src/ipc.o
                                                  ./rt-thread/src/idle.o
                                                  ./rt-thread/src/device.o
rt_object_detach_sethook                          ./rt-thread/src/object.o
rt_object_find                                    ./rt-thread/src/object.o
                                                  ./rt-thread/src/thread.o
                                                  ./rt-thread/src/device.o
rt_object_get_information                         ./rt-thread/src/object.o
                                                  ./rt-thread/components/dfs/filesystems/devfs/devfs.o
                                                  ./rt-thread/components/finsh/cmd.o
rt_object_get_length                              ./rt-thread/src/object.o
rt_object_get_pointers                            ./rt-thread/src/object.o
rt_object_get_type                                ./rt-thread/src/object.o
                                                  ./rt-thread/src/timer.o
                                                  ./rt-thread/src/thread.o
                                                  ./rt-thread/src/mempool.o
                                                  ./rt-thread/src/ipc.o
                                                  ./rt-thread/src/device.o
rt_object_init                                    ./rt-thread/src/object.o
                                                  ./rt-thread/src/timer.o
                                                  ./rt-thread/src/thread.o
                                                  ./rt-thread/src/mempool.o
                                                  ./rt-thread/src/ipc.o
                                                  ./rt-thread/src/device.o
rt_object_is_systemobject                         ./rt-thread/src/object.o
                                                  ./rt-thread/src/timer.o
                                                  ./rt-thread/src/thread.o
                                                  ./rt-thread/src/mempool.o
                                                  ./rt-thread/src/ipc.o
                                                  ./rt-thread/src/idle.o
                                                  ./rt-thread/src/device.o
rt_object_put_hook                                ./rt-thread/src/object.o
                                                  ./rt-thread/src/timer.o
                                                  ./rt-thread/src/ipc.o
rt_object_put_sethook                             ./rt-thread/src/object.o
rt_object_take_hook                               ./rt-thread/src/object.o
                                                  ./rt-thread/src/timer.o
                                                  ./rt-thread/src/ipc.o
rt_object_take_sethook                            ./rt-thread/src/object.o
rt_object_trytake_hook                            ./rt-thread/src/object.o
                                                  ./rt-thread/src/ipc.o
rt_object_trytake_sethook                         ./rt-thread/src/object.o
rt_pin_attach_irq                                 ./rt-thread/components/drivers/misc/pin.o
rt_pin_detach_irq                                 ./rt-thread/components/drivers/misc/pin.o
rt_pin_get                                        ./rt-thread/components/drivers/misc/pin.o
rt_pin_irq_enable                                 ./rt-thread/components/drivers/misc/pin.o
rt_pin_mode                                       ./rt-thread/components/drivers/misc/pin.o
rt_pin_read                                       ./rt-thread/components/drivers/misc/pin.o
rt_pin_write                                      ./rt-thread/components/drivers/misc/pin.o
rt_pipe_close                                     ./rt-thread/components/drivers/src/pipe.o
rt_pipe_control                                   ./rt-thread/components/drivers/src/pipe.o
rt_pipe_create                                    ./rt-thread/components/drivers/src/pipe.o
rt_pipe_delete                                    ./rt-thread/components/drivers/src/pipe.o
rt_pipe_open                                      ./rt-thread/components/drivers/src/pipe.o
rt_pipe_read                                      ./rt-thread/components/drivers/src/pipe.o
rt_pipe_write                                     ./rt-thread/components/drivers/src/pipe.o
rt_rbb_blk_alloc                                  ./rt-thread/components/drivers/src/ringblk_buf.o
rt_rbb_blk_buf                                    ./rt-thread/components/drivers/src/ringblk_buf.o
rt_rbb_blk_free                                   ./rt-thread/components/drivers/src/ringblk_buf.o
rt_rbb_blk_get                                    ./rt-thread/components/drivers/src/ringblk_buf.o
rt_rbb_blk_put                                    ./rt-thread/components/drivers/src/ringblk_buf.o
rt_rbb_blk_queue_buf                              ./rt-thread/components/drivers/src/ringblk_buf.o
rt_rbb_blk_queue_free                             ./rt-thread/components/drivers/src/ringblk_buf.o
rt_rbb_blk_queue_get                              ./rt-thread/components/drivers/src/ringblk_buf.o
rt_rbb_blk_queue_len                              ./rt-thread/components/drivers/src/ringblk_buf.o
rt_rbb_blk_size                                   ./rt-thread/components/drivers/src/ringblk_buf.o
rt_rbb_create                                     ./rt-thread/components/drivers/src/ringblk_buf.o
rt_rbb_destroy                                    ./rt-thread/components/drivers/src/ringblk_buf.o
rt_rbb_get_buf_size                               ./rt-thread/components/drivers/src/ringblk_buf.o
rt_rbb_init                                       ./rt-thread/components/drivers/src/ringblk_buf.o
rt_rbb_next_blk_queue_len                         ./rt-thread/components/drivers/src/ringblk_buf.o
rt_realloc                                        ./rt-thread/src/mem.o
                                                  ./rt-thread/components/dfs/src/dfs.o
                                                  ./rt-thread/components/libc/compilers/gcc/newlib/syscalls.o
rt_ringbuffer_create                              ./rt-thread/components/drivers/src/ringbuffer.o
                                                  ./rt-thread/components/drivers/src/pipe.o
rt_ringbuffer_data_len                            ./rt-thread/components/drivers/src/ringbuffer.o
                                                  ./rt-thread/components/drivers/src/pipe.o
rt_ringbuffer_destroy                             ./rt-thread/components/drivers/src/ringbuffer.o
                                                  ./rt-thread/components/drivers/src/pipe.o
rt_ringbuffer_get                                 ./rt-thread/components/drivers/src/ringbuffer.o
                                                  ./rt-thread/components/drivers/src/pipe.o
rt_ringbuffer_getchar                             ./rt-thread/components/drivers/src/ringbuffer.o
rt_ringbuffer_init                                ./rt-thread/components/drivers/src/ringbuffer.o
rt_ringbuffer_peak                                ./rt-thread/components/drivers/src/ringbuffer.o
rt_ringbuffer_put                                 ./rt-thread/components/drivers/src/ringbuffer.o
                                                  ./rt-thread/components/drivers/src/pipe.o
rt_ringbuffer_put_force                           ./rt-thread/components/drivers/src/ringbuffer.o
rt_ringbuffer_putchar                             ./rt-thread/components/drivers/src/ringbuffer.o
rt_ringbuffer_putchar_force                       ./rt-thread/components/drivers/src/ringbuffer.o
rt_ringbuffer_reset                               ./rt-thread/components/drivers/src/ringbuffer.o
rt_schedule                                       ./rt-thread/src/scheduler.o
                                                  ./rt-thread/components/dfs/src/dfs_poll.o
                                                  ./rt-thread/components/drivers/src/workqueue.o
                                                  ./rt-thread/components/drivers/src/waitqueue.o
                                                  ./rt-thread/components/drivers/src/dataqueue.o
                                                  ./rt-thread/components/drivers/src/completion.o
                                                  ./rt-thread/src/timer.o
                                                  ./rt-thread/src/thread.o
                                                  ./rt-thread/src/mempool.o
                                                  ./rt-thread/src/ipc.o
                                                  ./rt-thread/src/clock.o
rt_schedule_insert_thread                         ./rt-thread/src/scheduler.o
                                                  ./rt-thread/src/thread.o
rt_schedule_remove_thread                         ./rt-thread/src/scheduler.o
                                                  ./rt-thread/src/thread.o
rt_scheduler_sethook                              ./rt-thread/src/scheduler.o
rt_scheduler_switch_sethook                       ./rt-thread/src/scheduler.o
rt_sem_control                                    ./rt-thread/src/ipc.o
rt_sem_create                                     ./rt-thread/src/ipc.o
rt_sem_delete                                     ./rt-thread/src/ipc.o
rt_sem_detach                                     ./rt-thread/src/ipc.o
                                                  ./rt-thread/components/drivers/src/workqueue.o
rt_sem_init                                       ./rt-thread/src/ipc.o
                                                  ./rt-thread/components/drivers/src/workqueue.o
                                                  ./rt-thread/components/finsh/shell.o
                                                  ./rt-thread/src/mem.o
rt_sem_release                                    ./rt-thread/src/ipc.o
                                                  ./rt-thread/components/drivers/src/workqueue.o
                                                  ./rt-thread/src/mem.o
rt_sem_take                                       ./rt-thread/src/ipc.o
                                                  ./rt-thread/components/drivers/src/workqueue.o
                                                  ./rt-thread/src/mem.o
rt_sem_trytake                                    ./rt-thread/src/ipc.o
                                                  ./rt-thread/components/drivers/src/workqueue.o
rt_set_errno                                      ./rt-thread/src/kservice.o
                                                  ./rt-thread/components/dfs/src/dfs_posix.o
                                                  ./rt-thread/components/dfs/src/dfs_fs.o
                                                  ./rt-thread/components/drivers/serial/serial.o
                                                  ./rt-thread/components/drivers/src/pipe.o
                                                  ./rt-thread/components/libc/compilers/common/time.o
                                                  ./rt-thread/src/mempool.o
                                                  ./rt-thread/src/device.o
rt_show_version                                   ./rt-thread/src/kservice.o
                                                  ./rt-thread/components/finsh/cmd.o
                                                  ./rt-thread/src/components.o
rt_snprintf                                       ./rt-thread/src/kservice.o
                                                  ./rt-thread/components/dfs/src/dfs.o
                                                  ./rt-thread/components/drivers/src/pipe.o
                                                  ./rt-thread/components/finsh/msh_file.o
rt_sprintf                                        ./rt-thread/src/kservice.o
                                                  ./rt-thread/components/finsh/msh_file.o
                                                  ./rt-thread/src/idle.o
rt_strcasecmp                                     ./rt-thread/src/kservice.o
rt_strcmp                                         ./rt-thread/src/kservice.o
                                                  ./rt-thread/components/finsh/msh_file.o
rt_strdup                                         ./rt-thread/src/kservice.o
                                                  ./rt-thread/components/dfs/src/dfs_file.o
                                                  ./rt-thread/components/dfs/src/dfs.o
                                                  ./rt-thread/components/libc/compilers/common/stdlib.o
rt_strlen                                         ./rt-thread/src/kservice.o
                                                  ./rt-thread/components/drivers/serial/serial.o
                                                  ./rt-thread/components/finsh/shell.o
                                                  ./rt-thread/components/finsh/msh_file.o
                                                  ./rt-thread/components/finsh/msh.o
                                                  ./rt-thread/components/libc/compilers/common/time.o
                                                  ./rt-thread/components/libc/compilers/common/stdlib.o
rt_strncmp                                        ./rt-thread/src/kservice.o
                                                  ./rt-thread/src/object.o
rt_strncpy                                        ./rt-thread/src/kservice.o
                                                  ./rt-thread/components/dfs/filesystems/devfs/devfs.o
                                                  ./rt-thread/components/finsh/msh.o
                                                  ./rt-thread/src/object.o
rt_strnlen                                        ./rt-thread/src/kservice.o
rt_strstr                                         ./rt-thread/src/kservice.o
rt_system_heap_init                               ./rt-thread/src/mem.o
rt_system_scheduler_init                          ./rt-thread/src/scheduler.o
                                                  ./rt-thread/src/components.o
rt_system_scheduler_start                         ./rt-thread/src/scheduler.o
                                                  ./rt-thread/src/components.o
rt_system_timer_init                              ./rt-thread/src/timer.o
                                                  ./rt-thread/src/components.o
rt_system_timer_thread_init                       ./rt-thread/src/timer.o
                                                  ./rt-thread/src/components.o
rt_thread_control                                 ./rt-thread/src/thread.o
                                                  ./rt-thread/components/libc/compilers/common/stdlib.o
                                                  ./rt-thread/src/ipc.o
rt_thread_create                                  ./rt-thread/src/thread.o
                                                  ./rt-thread/components/drivers/src/workqueue.o
                                                  ./rt-thread/components/finsh/shell.o
                                                  ./rt-thread/src/components.o
rt_thread_defunct_dequeue                         ./rt-thread/src/idle.o
rt_thread_defunct_enqueue                         ./rt-thread/src/idle.o
                                                  ./rt-thread/src/thread.o
rt_thread_delay                                   ./rt-thread/src/thread.o
                                                  ./rt-thread/components/libc/compilers/common/unistd.o
rt_thread_delay_until                             ./rt-thread/src/thread.o
rt_thread_delete                                  ./rt-thread/src/thread.o
                                                  ./rt-thread/components/drivers/src/workqueue.o
rt_thread_detach                                  ./rt-thread/src/thread.o
rt_thread_find                                    ./rt-thread/src/thread.o
                                                  ./rt-thread/components/drivers/serial/serial.o
rt_thread_idle_delhook                            ./rt-thread/src/idle.o
rt_thread_idle_gethandler                         ./rt-thread/src/idle.o
rt_thread_idle_init                               ./rt-thread/src/idle.o
                                                  ./rt-thread/src/components.o
rt_thread_idle_sethook                            ./rt-thread/src/idle.o
rt_thread_init                                    ./rt-thread/src/thread.o
                                                  ./rt-thread/src/idle.o
rt_thread_inited_sethook                          ./rt-thread/src/thread.o
rt_thread_mdelay                                  ./rt-thread/src/thread.o
                                                  ./rt-thread/components/libc/compilers/common/unistd.o
                                                  ./rt-thread/components/libc/compilers/common/delay.o
rt_thread_priority_table                          ./rt-thread/src/scheduler.o
rt_thread_ready_priority_group                    ./rt-thread/src/scheduler.o
rt_thread_resume                                  ./rt-thread/src/thread.o
                                                  ./rt-thread/components/drivers/src/workqueue.o
                                                  ./rt-thread/components/drivers/src/waitqueue.o
                                                  ./rt-thread/components/drivers/src/dataqueue.o
                                                  ./rt-thread/components/drivers/src/completion.o
                                                  ./rt-thread/src/mempool.o
                                                  ./rt-thread/src/ipc.o
rt_thread_resume_sethook                          ./rt-thread/src/thread.o
rt_thread_self                                    ./rt-thread/src/thread.o
                                                  ./rt-thread/components/dfs/src/dfs_poll.o
                                                  ./rt-thread/components/drivers/serial/serial.o
                                                  ./rt-thread/components/drivers/src/workqueue.o
                                                  ./rt-thread/components/drivers/src/waitqueue.o
                                                  ./rt-thread/components/drivers/src/dataqueue.o
                                                  ./rt-thread/components/drivers/src/completion.o
                                                  ./rt-thread/components/libc/compilers/common/unistd.o
                                                  ./rt-thread/components/libc/compilers/common/stdlib.o
                                                  ./rt-thread/libcpu/arm/am335x/trap.o
                                                  ./rt-thread/src/mempool.o
                                                  ./rt-thread/src/kservice.o
                                                  ./rt-thread/src/ipc.o
                                                  ./rt-thread/src/clock.o
rt_thread_sleep                                   ./rt-thread/src/thread.o
rt_thread_startup                                 ./rt-thread/src/thread.o
                                                  ./rt-thread/components/drivers/src/workqueue.o
                                                  ./rt-thread/components/finsh/shell.o
                                                  ./rt-thread/src/idle.o
                                                  ./rt-thread/src/components.o
rt_thread_suspend                                 ./rt-thread/src/thread.o
                                                  ./rt-thread/components/dfs/src/dfs_poll.o
                                                  ./rt-thread/components/drivers/src/workqueue.o
                                                  ./rt-thread/components/drivers/src/waitqueue.o
                                                  ./rt-thread/components/drivers/src/dataqueue.o
                                                  ./rt-thread/components/drivers/src/completion.o
                                                  ./rt-thread/src/mempool.o
                                                  ./rt-thread/src/ipc.o
rt_thread_suspend_sethook                         ./rt-thread/src/thread.o
rt_thread_switch_interrupt_flag                   ./rt-thread/libcpu/arm/am335x/interrupt.o
                                                  ./rt-thread/libcpu/arm/am335x/context_gcc.o
rt_thread_timeout                                 ./rt-thread/src/thread.o
rt_thread_yield                                   ./rt-thread/src/thread.o
rt_tick_from_millisecond                          ./rt-thread/src/clock.o
                                                  ./rt-thread/components/dfs/src/dfs_poll.o
                                                  ./rt-thread/components/drivers/src/waitqueue.o
                                                  ./rt-thread/src/thread.o
rt_tick_get                                       ./rt-thread/src/clock.o
                                                  ./rt-thread/components/finsh/cmd.o
                                                  ./rt-thread/components/libc/compilers/common/time.o
                                                  ./rt-thread/src/timer.o
                                                  ./rt-thread/src/thread.o
                                                  ./rt-thread/src/mempool.o
                                                  ./rt-thread/src/ipc.o
rt_tick_get_millisecond                           ./rt-thread/src/clock.o
rt_tick_increase                                  ./rt-thread/src/clock.o
                                                  ./drivers/board.o
rt_tick_set                                       ./rt-thread/src/clock.o
rt_timer_check                                    ./rt-thread/src/timer.o
                                                  ./rt-thread/src/clock.o
rt_timer_control                                  ./rt-thread/src/timer.o
                                                  ./rt-thread/components/dfs/src/dfs_poll.o
                                                  ./rt-thread/components/drivers/src/workqueue.o
                                                  ./rt-thread/components/drivers/src/waitqueue.o
                                                  ./rt-thread/components/drivers/src/dataqueue.o
                                                  ./rt-thread/components/drivers/src/completion.o
                                                  ./rt-thread/src/thread.o
                                                  ./rt-thread/src/mempool.o
                                                  ./rt-thread/src/ipc.o
rt_timer_create                                   ./rt-thread/src/timer.o
rt_timer_delete                                   ./rt-thread/src/timer.o
rt_timer_detach                                   ./rt-thread/src/timer.o
                                                  ./rt-thread/components/drivers/src/workqueue.o
                                                  ./rt-thread/src/thread.o
rt_timer_enter_sethook                            ./rt-thread/src/timer.o
rt_timer_exit_sethook                             ./rt-thread/src/timer.o
rt_timer_handler                                  ./drivers/board.o
rt_timer_init                                     ./rt-thread/src/timer.o
                                                  ./rt-thread/components/drivers/src/workqueue.o
                                                  ./rt-thread/src/thread.o
rt_timer_next_timeout_tick                        ./rt-thread/src/timer.o
rt_timer_start                                    ./rt-thread/src/timer.o
                                                  ./rt-thread/components/dfs/src/dfs_poll.o
                                                  ./rt-thread/components/drivers/src/workqueue.o
                                                  ./rt-thread/components/drivers/src/waitqueue.o
                                                  ./rt-thread/components/drivers/src/dataqueue.o
                                                  ./rt-thread/components/drivers/src/completion.o
                                                  ./rt-thread/src/thread.o
                                                  ./rt-thread/src/mempool.o
                                                  ./rt-thread/src/ipc.o
rt_timer_stop                                     ./rt-thread/src/timer.o
                                                  ./rt-thread/components/drivers/src/workqueue.o
                                                  ./rt-thread/src/thread.o
rt_timespec_to_tick                               ./rt-thread/components/libc/compilers/common/time.o
rt_vsnprintf                                      ./rt-thread/src/kservice.o
rt_vsprintf                                       ./rt-thread/src/kservice.o
rt_work_cancel                                    ./rt-thread/components/drivers/src/workqueue.o
rt_work_submit                                    ./rt-thread/components/drivers/src/workqueue.o
rt_workqueue_cancel_all_work                      ./rt-thread/components/drivers/src/workqueue.o
rt_workqueue_cancel_work                          ./rt-thread/components/drivers/src/workqueue.o
rt_workqueue_cancel_work_sync                     ./rt-thread/components/drivers/src/workqueue.o
rt_workqueue_create                               ./rt-thread/components/drivers/src/workqueue.o
rt_workqueue_critical_work                        ./rt-thread/components/drivers/src/workqueue.o
rt_workqueue_destroy                              ./rt-thread/components/drivers/src/workqueue.o
rt_workqueue_dowork                               ./rt-thread/components/drivers/src/workqueue.o
rt_workqueue_submit_work                          ./rt-thread/components/drivers/src/workqueue.o
rt_wqueue_add                                     ./rt-thread/components/drivers/src/waitqueue.o
                                                  ./rt-thread/components/dfs/src/dfs_poll.o
rt_wqueue_remove                                  ./rt-thread/components/drivers/src/waitqueue.o
                                                  ./rt-thread/components/dfs/src/dfs_poll.o
rt_wqueue_wait                                    ./rt-thread/components/drivers/src/waitqueue.o
                                                  ./rt-thread/components/drivers/serial/serial.o
                                                  ./rt-thread/components/drivers/src/pipe.o
rt_wqueue_wakeup                                  ./rt-thread/components/drivers/src/waitqueue.o
                                                  ./rt-thread/components/drivers/serial/serial.o
                                                  ./rt-thread/components/drivers/src/pipe.o
rtiDisableNotification                            ./HALCoGen/source/rti.o
rtiEnableNotification                             ./HALCoGen/source/rti.o
                                                  ./drivers/board.o
rtiGetConfigValue                                 ./HALCoGen/source/rti.o
rtiGetCurrentTick                                 ./HALCoGen/source/rti.o
rtiGetPeriod                                      ./HALCoGen/source/rti.o
rtiInit                                           ./HALCoGen/source/rti.o
                                                  ./drivers/board.o
rtiResetCounter                                   ./HALCoGen/source/rti.o
rtiSetPeriod                                      ./HALCoGen/source/rti.o
rtiStartCounter                                   ./HALCoGen/source/rti.o
                                                  ./drivers/board.o
rtiStopCounter                                    ./HALCoGen/source/rti.o
rtthread_startup                                  ./rt-thread/src/components.o
seekdir                                           ./rt-thread/components/dfs/src/dfs_posix.o
select                                            ./rt-thread/components/dfs/src/dfs_select.o
setlocale                                         d:/rt-threadstudio/repo/extract/toolchain_support_packages/arm/gnu_tools_for_arm_embedded_processors/5.4.1/bin/../lib/gcc/arm-none-eabi/5.4.1/../../../../arm-none-eabi/lib/armv7-ar/thumb/softfp\libc.a(lib_a-locale.o)
settimeofday                                      ./rt-thread/components/libc/compilers/common/time.o
setupFlash                                        ./HALCoGen/source/system.o
setupPLL                                          ./HALCoGen/source/system.o
setvbuf                                           d:/rt-threadstudio/repo/extract/toolchain_support_packages/arm/gnu_tools_for_arm_embedded_processors/5.4.1/bin/../lib/gcc/arm-none-eabi/5.4.1/../../../../arm-none-eabi/lib/armv7-ar/thumb/softfp\libc.a(lib_a-setvbuf.o)
                                                  ./rt-thread/components/libc/compilers/gcc/newlib/stdio.o
shell                                             ./rt-thread/components/finsh/shell.o
sleep                                             ./rt-thread/components/libc/compilers/common/unistd.o
snprintf                                          d:/rt-threadstudio/repo/extract/toolchain_support_packages/arm/gnu_tools_for_arm_embedded_processors/5.4.1/bin/../lib/gcc/arm-none-eabi/5.4.1/../../../../arm-none-eabi/lib/armv7-ar/thumb/softfp\libc.a(lib_a-snprintf.o)
                                                  ./rt-thread/components/libc/compilers/gcc/newlib/stdio.o
software_init_hook                                d:/rt-threadstudio/repo/extract/toolchain_support_packages/arm/gnu_tools_for_arm_embedded_processors/5.4.1/bin/../lib/gcc/arm-none-eabi/5.4.1/../../../../arm-none-eabi/lib/armv7-ar/thumb/softfp/crt0.o
sramGetConfigValue                                ./HALCoGen/source/system.o
ssleep                                            ./rt-thread/components/libc/compilers/common/delay.o
stack_start                                       ./rt-thread/libcpu/arm/am335x/start_gcc.o
stack_top                                         ./rt-thread/libcpu/arm/am335x/start_gcc.o
stat                                              ./rt-thread/components/dfs/src/dfs_posix.o
                                                  ./rt-thread/components/finsh/msh_file.o
                                                  ./rt-thread/components/libc/compilers/gcc/newlib/syscalls.o
statfs                                            ./rt-thread/components/dfs/src/dfs_posix.o
stime                                             ./rt-thread/components/libc/compilers/common/time.o
strchr                                            d:/rt-threadstudio/repo/extract/toolchain_support_packages/arm/gnu_tools_for_arm_embedded_processors/5.4.1/bin/../lib/gcc/arm-none-eabi/5.4.1/../../../../arm-none-eabi/lib/armv7-ar/thumb/softfp\libc.a(lib_a-strchr.o)
                                                  d:/rt-threadstudio/repo/extract/toolchain_support_packages/arm/gnu_tools_for_arm_embedded_processors/5.4.1/bin/../lib/gcc/arm-none-eabi/5.4.1/../../../../arm-none-eabi/lib/armv7-ar/thumb/softfp\libc.a(lib_a-strstr.o)
                                                  d:/rt-threadstudio/repo/extract/toolchain_support_packages/arm/gnu_tools_for_arm_embedded_processors/5.4.1/bin/../lib/gcc/arm-none-eabi/5.4.1/../../../../arm-none-eabi/lib/armv7-ar/thumb/softfp\libc.a(lib_a-strrchr.o)
                                                  d:/rt-threadstudio/repo/extract/toolchain_support_packages/arm/gnu_tools_for_arm_embedded_processors/5.4.1/bin/../lib/gcc/arm-none-eabi/5.4.1/../../../../arm-none-eabi/lib/armv7-ar/thumb/softfp\libc.a(lib_a-setenv_r.o)
                                                  d:/rt-threadstudio/repo/extract/toolchain_support_packages/arm/gnu_tools_for_arm_embedded_processors/5.4.1/bin/../lib/gcc/arm-none-eabi/5.4.1/../../../../arm-none-eabi/lib/armv7-ar/thumb/softfp\libc.a(lib_a-putenv_r.o)
strcmp                                            d:/rt-threadstudio/repo/extract/toolchain_support_packages/arm/gnu_tools_for_arm_embedded_processors/5.4.1/bin/../lib/gcc/arm-none-eabi/5.4.1/../../../../arm-none-eabi/lib/armv7-ar/thumb/softfp\libc.a(lib_a-strcmp.o)
                                                  d:/rt-threadstudio/repo/extract/toolchain_support_packages/arm/gnu_tools_for_arm_embedded_processors/5.4.1/bin/../lib/gcc/arm-none-eabi/5.4.1/../../../../arm-none-eabi/lib/armv7-ar/thumb/softfp\libc.a(lib_a-locale.o)
                                                  ./rt-thread/components/dfs/src/dfs_fs.o
                                                  ./rt-thread/components/dfs/src/dfs_file.o
                                                  ./rt-thread/components/dfs/src/dfs.o
                                                  ./rt-thread/components/finsh/msh_file.o
strcpy                                            d:/rt-threadstudio/repo/extract/toolchain_support_packages/arm/gnu_tools_for_arm_embedded_processors/5.4.1/bin/../lib/gcc/arm-none-eabi/5.4.1/../../../../arm-none-eabi/lib/armv7-ar/thumb/softfp\libc.a(lib_a-strcpy.o)
                                                  ./rt-thread/components/finsh/shell.o
                                                  ./rt-thread/components/finsh/msh.o
strlen                                            d:/rt-threadstudio/repo/extract/toolchain_support_packages/arm/gnu_tools_for_arm_embedded_processors/5.4.1/bin/../lib/gcc/arm-none-eabi/5.4.1/../../../../arm-none-eabi/lib/armv7-ar/thumb/softfp\libc.a(lib_a-strlen-stub.o)
                                                  d:/rt-threadstudio/repo/extract/toolchain_support_packages/arm/gnu_tools_for_arm_embedded_processors/5.4.1/bin/../lib/gcc/arm-none-eabi/5.4.1/../../../../arm-none-eabi/lib/armv7-ar/thumb/softfp\libc.a(lib_a-svfiprintf.o)
                                                  d:/rt-threadstudio/repo/extract/toolchain_support_packages/arm/gnu_tools_for_arm_embedded_processors/5.4.1/bin/../lib/gcc/arm-none-eabi/5.4.1/../../../../arm-none-eabi/lib/armv7-ar/thumb/softfp\libc.a(lib_a-svfprintf.o)
                                                  d:/rt-threadstudio/repo/extract/toolchain_support_packages/arm/gnu_tools_for_arm_embedded_processors/5.4.1/bin/../lib/gcc/arm-none-eabi/5.4.1/../../../../arm-none-eabi/lib/armv7-ar/thumb/softfp\libc.a(lib_a-strdup_r.o)
                                                  d:/rt-threadstudio/repo/extract/toolchain_support_packages/arm/gnu_tools_for_arm_embedded_processors/5.4.1/bin/../lib/gcc/arm-none-eabi/5.4.1/../../../../arm-none-eabi/lib/armv7-ar/thumb/softfp\libc.a(lib_a-setenv_r.o)
                                                  d:/rt-threadstudio/repo/extract/toolchain_support_packages/arm/gnu_tools_for_arm_embedded_processors/5.4.1/bin/../lib/gcc/arm-none-eabi/5.4.1/../../../../arm-none-eabi/lib/armv7-ar/thumb/softfp\libc.a(lib_a-puts.o)
                                                  ./rt-thread/components/dfs/src/dfs_posix.o
                                                  ./rt-thread/components/dfs/src/dfs_fs.o
                                                  ./rt-thread/components/dfs/src/dfs.o
                                                  ./rt-thread/components/finsh/shell.o
                                                  ./rt-thread/components/finsh/msh_file.o
                                                  ./rt-thread/components/finsh/msh.o
strncmp                                           d:/rt-threadstudio/repo/extract/toolchain_support_packages/arm/gnu_tools_for_arm_embedded_processors/5.4.1/bin/../lib/gcc/arm-none-eabi/5.4.1/../../../../arm-none-eabi/lib/armv7-ar/thumb/softfp\libc.a(lib_a-strncmp.o)
                                                  d:/rt-threadstudio/repo/extract/toolchain_support_packages/arm/gnu_tools_for_arm_embedded_processors/5.4.1/bin/../lib/gcc/arm-none-eabi/5.4.1/../../../../arm-none-eabi/lib/armv7-ar/thumb/softfp\libc.a(lib_a-getenv_r.o)
                                                  ./rt-thread/components/dfs/src/dfs_fs.o
                                                  ./rt-thread/components/finsh/msh.o
                                                  ./rt-thread/components/finsh/cmd.o
strncpy                                           d:/rt-threadstudio/repo/extract/toolchain_support_packages/arm/gnu_tools_for_arm_embedded_processors/5.4.1/bin/../lib/gcc/arm-none-eabi/5.4.1/../../../../arm-none-eabi/lib/armv7-ar/thumb/softfp\libc.a(lib_a-strncpy.o)
                                                  ./rt-thread/components/dfs/src/dfs_posix.o
                                                  ./rt-thread/components/finsh/shell.o
strrchr                                           d:/rt-threadstudio/repo/extract/toolchain_support_packages/arm/gnu_tools_for_arm_embedded_processors/5.4.1/bin/../lib/gcc/arm-none-eabi/5.4.1/../../../../arm-none-eabi/lib/armv7-ar/thumb/softfp\libc.a(lib_a-strrchr.o)
                                                  ./rt-thread/components/dfs/src/dfs_file.o
strstr                                            d:/rt-threadstudio/repo/extract/toolchain_support_packages/arm/gnu_tools_for_arm_embedded_processors/5.4.1/bin/../lib/gcc/arm-none-eabi/5.4.1/../../../../arm-none-eabi/lib/armv7-ar/thumb/softfp\libc.a(lib_a-strstr.o)
                                                  ./rt-thread/components/finsh/msh_file.o
strtol                                            d:/rt-threadstudio/repo/extract/toolchain_support_packages/arm/gnu_tools_for_arm_embedded_processors/5.4.1/bin/../lib/gcc/arm-none-eabi/5.4.1/../../../../arm-none-eabi/lib/armv7-ar/thumb/softfp\libc.a(lib_a-strtol.o)
                                                  d:/rt-threadstudio/repo/extract/toolchain_support_packages/arm/gnu_tools_for_arm_embedded_processors/5.4.1/bin/../lib/gcc/arm-none-eabi/5.4.1/../../../../arm-none-eabi/lib/armv7-ar/thumb/softfp\libc.a(lib_a-atoi.o)
strtol_l                                          d:/rt-threadstudio/repo/extract/toolchain_support_packages/arm/gnu_tools_for_arm_embedded_processors/5.4.1/bin/../lib/gcc/arm-none-eabi/5.4.1/../../../../arm-none-eabi/lib/armv7-ar/thumb/softfp\libc.a(lib_a-strtol.o)
system                                            ./rt-thread/components/libc/compilers/common/stdlib.o
systemGetConfigValue                              ./HALCoGen/source/system.o
systemInit                                        ./HALCoGen/source/system.o
                                                  ./HALCoGen/source/sys_startup.o
systemPowerDown                                   ./HALCoGen/source/system.o
system_vectors                                    ./rt-thread/libcpu/arm/am335x/vector_gcc.o
tcmflashGetConfigValue                            ./HALCoGen/source/system.o
telldir                                           ./rt-thread/components/dfs/src/dfs_posix.o
time                                              ./rt-thread/components/libc/compilers/common/time.o
timegm                                            ./rt-thread/components/libc/compilers/common/time.o
trimLPO                                           ./HALCoGen/source/system.o
ttyname                                           ./rt-thread/components/libc/compilers/common/unistd.o
turnon_VFP                                        ./rt-thread/libcpu/arm/am335x/start_gcc.o
                                                  ./rt-thread/libcpu/arm/am335x/vector_gcc.o
tz_get                                            ./rt-thread/components/libc/compilers/common/time.o
tz_is_dst                                         ./rt-thread/components/libc/compilers/common/time.o
tz_set                                            ./rt-thread/components/libc/compilers/common/time.o
udelay                                            ./rt-thread/components/libc/compilers/common/delay.o
umask                                             ./rt-thread/components/libc/compilers/gcc/newlib/syscalls.o
unlink                                            ./rt-thread/components/dfs/src/dfs_posix.o
                                                  ./rt-thread/components/finsh/msh_file.o
                                                  ./rt-thread/components/libc/compilers/gcc/newlib/syscalls.o
usleep                                            ./rt-thread/components/libc/compilers/common/unistd.o
vector_dabort                                     ./rt-thread/libcpu/arm/am335x/start_gcc.o
                                                  ./rt-thread/libcpu/arm/am335x/vector_gcc.o
vector_pabort                                     ./rt-thread/libcpu/arm/am335x/start_gcc.o
                                                  ./rt-thread/libcpu/arm/am335x/vector_gcc.o
vector_resv                                       ./rt-thread/libcpu/arm/am335x/start_gcc.o
                                                  ./rt-thread/libcpu/arm/am335x/vector_gcc.o
vector_svc                                        ./rt-thread/libcpu/arm/am335x/start_gcc.o
                                                  ./rt-thread/libcpu/arm/am335x/vector_gcc.o
version                                           ./rt-thread/components/finsh/cmd.o
vimChannelMap                                     ./HALCoGen/source/sys_vim.o
vimDisableInterrupt                               ./HALCoGen/source/sys_vim.o
                                                  ./rt-thread/libcpu/arm/am335x/interrupt.o
vimEnableInterrupt                                ./HALCoGen/source/sys_vim.o
                                                  ./rt-thread/libcpu/arm/am335x/interrupt.o
vimGetConfigValue                                 ./HALCoGen/source/sys_vim.o
vimInit                                           ./HALCoGen/source/sys_vim.o
                                                  ./HALCoGen/source/sys_startup.o
working_directory                                 ./rt-thread/components/dfs/src/dfs.o
                                                  ./rt-thread/components/dfs/src/dfs_posix.o
                                                  ./rt-thread/components/dfs/src/dfs_file.o
                                                  ./rt-thread/components/finsh/msh_file.o
write                                             ./rt-thread/components/dfs/src/dfs_posix.o
                                                  ./rt-thread/components/finsh/msh_file.o
                                                  ./rt-thread/components/libc/compilers/gcc/newlib/syscalls.o
